Microchip MPLAB XC8 Compiler V1.35 ()

Linker command line:

--edf=C:\Program Files (x86)\Microchip\xc8\v1.35\dat\en_msgs.txt \
  --msgdisable=1467:Off; -cs \
  -h+dist/PICDEM.net2_ENCx24J600_SPI/production\udpDEMO.X.production.sym \
  --cmf=dist/PICDEM.net2_ENCx24J600_SPI/production\udpDEMO.X.production.cmf \
  -z -Q18F97J60 -oC:\Users\c16008\AppData\Local\Temp\sd0c.2 \
  -Mdist/PICDEM.net2_ENCx24J600_SPI/production/udpDEMO.X.production.map -E1 \
  -ver=XC8 -ASTACK=02F9h-0e7fh -pstack=STACK -ACODE=00h-01FFF7h \
  -ACONST=00h-01FFF7h -ASMALLCONST=01000h-010FFhx495,01FF00h-01FFF7h \
  -AMEDIUMCONST=01000h-0FFFFh,011000h-01FFF7h -ACOMRAM=01h-05Fh \
  -AABS1=00h-0E7Fh,0F00h-0F5Fh -ABIGRAM=01h-0E7Fh,0F00h-0F5Fh \
  -ARAM=060h-0FFh,0100h-01FFhx13,0E00h-0E7Fh,0F00h-0F5Fh -ABANK0=060h-0FFh \
  -ABANK1=0100h-01FFh -ABANK2=0200h-02FFh -ABANK3=0300h-03FFh \
  -ABANK4=0400h-04FFh -ABANK5=0500h-05FFh -ABANK6=0600h-06FFh \
  -ABANK7=0700h-07FFh -ABANK8=0800h-08FFh -ABANK9=0900h-09FFh \
  -ABANK10=0A00h-0AFFh -ABANK11=0B00h-0BFFh -ABANK12=0C00h-0CFFh \
  -ABANK13=0D00h-0DFFh -ABANK14=0E00h-0E7Fh -ABANK15=0F00h-0F5Fh \
  -ASFR=0E80h-0EFFh,0F60h-0FFFh \
  -preset_vec=00h,intcode=08h,intcodelo=018h,powerup,init,end_init \
  -pramtop=01000h -psmallconst=SMALLCONST -pmediumconst=MEDIUMCONST \
  -pconst=CONST -AFARRAM=00h-00h -ACONFIG=01FFF8h-01FFFDh -pconfig=CONFIG \
  -pjflash_buffer=01F800h \
  -prdata=COMRAM,nvrram=COMRAM,nvbit=COMRAM,rbss=COMRAM,rbit=COMRAM \
  -pfarbss=FARRAM,fardata=FARRAM,nvFARRAM=FARRAM \
  -pintsave_regs=BIGRAM,bigbss=BIGRAM,bigdata=BIGRAM -pbss=RAM \
  -pidata=CODE,irdata=CODE,ibigdata=CODE,ifardata=CODE -prparam=COMRAM \
  C:\Users\c16008\AppData\Local\Temp\sd0c.obj \
  dist/PICDEM.net2_ENCx24J600_SPI/production\udpDEMO.X.production.obj 

Object code version is 3.11

Machine type is 18F97J60

Call graph: (short form)




                Name                               Link     Load   Length Selector   Space Scale
C:\Users\c16008\AppData\Local\Temp\sd0c.obj
                end_init                             28       28        4        C       0
                reset_vec                             0        0        4        0       0
                config                            1FFF8    1FFF8        6    1FFF8       0
dist/PICDEM.net2_ENCx24J600_SPI/production\udpDEMO.X.production.obj
                intcodelo                            18       18       10        C       0
                intcode                               8        8        6        4       0
                temp                                 5E       5E        1        1       1
                smallconst                         1000     1000       B4      800       0
                text118                            62B0     62B0       28      85A       0
                intcode_body                       664A     664A        8      85A       0
                text115                            6642     6642        8      85A       0
                text114                            6540     6540       16      85A       0
                text113                            61AE     61AE       2E      85A       0
                text112                            64B2     64B2       1A      85A       0
                text111                            65E6     65E6        E      85A       0
                text110                            5A4E     5A4E       56      85A       0
                text109                            5E08     5E08       4A      85A       0
                text108                            642A     642A       1E      85A       0
                text107                            5E52     5E52       42      85A       0
                text106                            5BA0     5BA0       54      85A       0
                text105                            6618     6618        C      85A       0
                text104                            638A     638A       22      85A       0
                text103                            5F54     5F54       40      85A       0
                text102                            5F14     5F14       40      85A       0
                text100                            52E2     52E2       A8      85A       0
                text99                             5930     5930       6C      85A       0
                text98                             57C6     57C6       8A      85A       0
                text97                             659E     659E       10      85A       0
                text96                             5C42     5C42       4E      85A       0
                text95                             6010     6010       3C      85A       0
                text94                             59F8     59F8       56      85A       0
                text93                             6322     6322       24      85A       0
                text92                             5B4C     5B4C       54      85A       0
                text91                             5AF8     5AF8       54      85A       0
                text90                             495E     495E      162      85A       0
                text89                             6288     6288       28      85A       0
                text88                             6498     6498       1A      85A       0
                text87                             466E     466E      186      85A       0
                text86                             5BF4     5BF4       4E      85A       0
                text83                             5086     5086       F2      85A       0
                text82                             657C     657C       12      85A       0
                text81                             647E     647E       1A      85A       0
                text80                             6180     6180       2E      85A       0
                text79                             5ED4     5ED4       40      85A       0
                text77                             60EE     60EE       34      85A       0
                text76                             58C0     58C0       70      85A       0
                text75                             4D4E     4D4E      122      85A       0
                text74                             660C     660C        C      85A       0
                text73                             65D8     65D8        E      85A       0
                text72                             5AA4     5AA4       54      85A       0
                text71                             6368     6368       22      85A       0
                text70                             625E     625E       2A      85A       0
                text69                             64FC     64FC       18      85A       0
                text68                             44BC     44BC      1B2      85A       0
                text67                             569C     569C       98      85A       0
                text66                             5E94     5E94       40      85A       0
                text65                             538A     538A       A6      85A       0
                text64                             5734     5734       92      85A       0
                text63                             34A8     34A8      340      85A       0
                text62                             6600     6600        C      85A       0
                text61                             60BA     60BA       34      85A       0
                text60                             64E4     64E4       18      85A       0
                text59                             5850     5850       70      85A       0
                text58                             5178     5178       BE      85A       0
                text57                             556A     556A       9A      85A       0
                text56                             658E     658E       10      85A       0
                text55                             4AC0     4AC0      156      85A       0
                text54                             5D28     5D28       4C      85A       0
                text53                             5604     5604       98      85A       0
                text52                             47F4     47F4      16A      85A       0
                text51                             2544     2544      754      85A       0
                text50                             4294     4294      228      85A       0
                text49                             10B4     10B4     1490      85A       0
                text48                             5DBE     5DBE       4A      85A       0
                text47                             5CDC     5CDC       4C      85A       0
                text46                             6122     6122       30      85A       0
                text45                             4E70     4E70      10E      85A       0
                text44                             2C98     2C98      420      85A       0
                text43                             6556     6556       14      85A       0
                text42                             64CC     64CC       18      85A       0
                text41                             656A     656A       12      85A       0
                text40                             6638     6638        A      85A       0
                text36                             63EC     63EC       20      85A       0
                text35                             6346     6346       22      85A       0
                text34                             662E     662E        A      85A       0
                text33                             65CA     65CA        E      85A       0
                text32                             65BC     65BC        E      85A       0
                text31                             63CC     63CC       20      85A       0
                text30                             6448     6448       1C      85A       0
                text29                             640C     640C       1E      85A       0
                text28                             6234     6234       2A      85A       0
                text27                             599C     599C       5C      85A       0
                text26                             5C90     5C90       4C      85A       0
                text25                             3DE2     3DE2      264      85A       0
                text24                             6208     6208       2C      85A       0
                text23                             30B8     30B8      3F0      85A       0
                text22                             4F7E     4F7E      108      85A       0
                text21                             37E8     37E8      30A      85A       0
                text20                             5D74     5D74       4A      85A       0
                text19                             5FD2     5FD2       3E      85A       0
                text18                             6464     6464       1A      85A       0
                text17                             3AF2     3AF2      2F0      85A       0
                text16                             61DC     61DC       2C      85A       0
                text15                             5236     5236       AC      85A       0
                text14                             4046     4046      24E      85A       0
                text13                             54CE     54CE       9C      85A       0
                text12                             65AE     65AE        E      85A       0
                text11                             62FE     62FE       24      85A       0
                text10                             6152     6152       2E      85A       0
                text9                              62D8     62D8       26      85A       0
                text8                              652A     652A       16      85A       0
                text7                              63AC     63AC       20      85A       0
                text6                              6624     6624        A      85A       0
                text5                              5430     5430       9E      85A       0
                text4                              604C     604C       38      85A       0
                text3                              65F4     65F4        C      85A       0
                text2                              6514     6514       16      85A       0
                text1                              5F94     5F94       3E      85A       0
                text0                              4C16     4C16      138      85A       0
                cstackCOMRAM                          1        1       5C        1       1
                cstackBANK0                          60       60       9F       60       1
                cstackBANK1                         100      100       83      100       1
                cstackBANK2                         2BC      2BC       35      200       1
                bssBANK2                            200      200       BC      200       1
                bssBANK1                            183      183       49      100       1
                dataBANK0                            FF       FF        1       60       1
                bssCOMRAM                            5D       5D        1        1       1
                cinit                              6084     6084       36      85A       0
                nvBANK2                             2F1      2F1        8      200       1
                idataBANK0                         6652     6652        1      85A       0

TOTAL           Name                               Link     Load   Length     Space
        CLASS   STACK          

        CLASS   CODE           
                end_init                             28       28        4         0
                intcodelo                            18       18       10         0
                intcode                               8        8        6         0
                reset_vec                             0        0        4         0
                text118                            62B0     62B0       28         0
                intcode_body                       664A     664A        8         0
                text115                            6642     6642        8         0
                text114                            6540     6540       16         0
                text113                            61AE     61AE       2E         0
                text112                            64B2     64B2       1A         0
                text111                            65E6     65E6        E         0
                text110                            5A4E     5A4E       56         0
                text109                            5E08     5E08       4A         0
                text108                            642A     642A       1E         0
                text107                            5E52     5E52       42         0
                text106                            5BA0     5BA0       54         0
                text105                            6618     6618        C         0
                text104                            638A     638A       22         0
                text103                            5F54     5F54       40         0
                text102                            5F14     5F14       40         0
                text100                            52E2     52E2       A8         0
                text99                             5930     5930       6C         0
                text98                             57C6     57C6       8A         0
                text97                             659E     659E       10         0
                text96                             5C42     5C42       4E         0
                text95                             6010     6010       3C         0
                text94                             59F8     59F8       56         0
                text93                             6322     6322       24         0
                text92                             5B4C     5B4C       54         0
                text91                             5AF8     5AF8       54         0
                text90                             495E     495E      162         0
                text89                             6288     6288       28         0
                text88                             6498     6498       1A         0
                text87                             466E     466E      186         0
                text86                             5BF4     5BF4       4E         0
                text83                             5086     5086       F2         0
                text82                             657C     657C       12         0
                text81                             647E     647E       1A         0
                text80                             6180     6180       2E         0
                text79                             5ED4     5ED4       40         0
                text77                             60EE     60EE       34         0
                text76                             58C0     58C0       70         0
                text75                             4D4E     4D4E      122         0
                text74                             660C     660C        C         0
                text73                             65D8     65D8        E         0
                text72                             5AA4     5AA4       54         0
                text71                             6368     6368       22         0
                text70                             625E     625E       2A         0
                text69                             64FC     64FC       18         0
                text68                             44BC     44BC      1B2         0
                text67                             569C     569C       98         0
                text66                             5E94     5E94       40         0
                text65                             538A     538A       A6         0
                text64                             5734     5734       92         0
                text63                             34A8     34A8      340         0
                text62                             6600     6600        C         0
                text61                             60BA     60BA       34         0
                text60                             64E4     64E4       18         0
                text59                             5850     5850       70         0
                text58                             5178     5178       BE         0
                text57                             556A     556A       9A         0
                text56                             658E     658E       10         0
                text55                             4AC0     4AC0      156         0
                text54                             5D28     5D28       4C         0
                text53                             5604     5604       98         0
                text52                             47F4     47F4      16A         0
                text51                             2544     2544      754         0
                text50                             4294     4294      228         0
                text49                             10B4     10B4     1490         0
                text48                             5DBE     5DBE       4A         0
                text47                             5CDC     5CDC       4C         0
                text46                             6122     6122       30         0
                text45                             4E70     4E70      10E         0
                text44                             2C98     2C98      420         0
                text43                             6556     6556       14         0
                text42                             64CC     64CC       18         0
                text41                             656A     656A       12         0
                text40                             6638     6638        A         0
                text36                             63EC     63EC       20         0
                text35                             6346     6346       22         0
                text34                             662E     662E        A         0
                text33                             65CA     65CA        E         0
                text32                             65BC     65BC        E         0
                text31                             63CC     63CC       20         0
                text30                             6448     6448       1C         0
                text29                             640C     640C       1E         0
                text28                             6234     6234       2A         0
                text27                             599C     599C       5C         0
                text26                             5C90     5C90       4C         0
                text25                             3DE2     3DE2      264         0
                text24                             6208     6208       2C         0
                text23                             30B8     30B8      3F0         0
                text22                             4F7E     4F7E      108         0
                text21                             37E8     37E8      30A         0
                text20                             5D74     5D74       4A         0
                text19                             5FD2     5FD2       3E         0
                text18                             6464     6464       1A         0
                text17                             3AF2     3AF2      2F0         0
                text16                             61DC     61DC       2C         0
                text15                             5236     5236       AC         0
                text14                             4046     4046      24E         0
                text13                             54CE     54CE       9C         0
                text12                             65AE     65AE        E         0
                text11                             62FE     62FE       24         0
                text10                             6152     6152       2E         0
                text9                              62D8     62D8       26         0
                text8                              652A     652A       16         0
                text7                              63AC     63AC       20         0
                text6                              6624     6624        A         0
                text5                              5430     5430       9E         0
                text4                              604C     604C       38         0
                text3                              65F4     65F4        C         0
                text2                              6514     6514       16         0
                text1                              5F94     5F94       3E         0
                text0                              4C16     4C16      138         0
                cinit                              6084     6084       36         0
                idataBANK0                         6652     6652        1         0

        CLASS   CONST          

        CLASS   SMALLCONST     
                smallconst                         1000     1000       B4         0

        CLASS   MEDIUMCONST    

        CLASS   COMRAM         
                temp                                 5E       5E        1         1
                cstackCOMRAM                          1        1       5C         1
                bssCOMRAM                            5D       5D        1         1

        CLASS   ABS1           

        CLASS   BIGRAM         

        CLASS   RAM            

        CLASS   BANK0          
                cstackBANK0                          60       60       9F         1
                dataBANK0                            FF       FF        1         1

        CLASS   BANK1          
                cstackBANK1                         100      100       83         1
                bssBANK1                            183      183       49         1

        CLASS   BANK2          
                cstackBANK2                         2BC      2BC       35         1
                bssBANK2                            200      200       BC         1
                nvBANK2                             2F1      2F1        8         1

        CLASS   BANK3          

        CLASS   BANK4          

        CLASS   BANK5          

        CLASS   BANK6          

        CLASS   BANK7          

        CLASS   BANK8          

        CLASS   BANK9          

        CLASS   BANK10         

        CLASS   BANK11         

        CLASS   BANK12         

        CLASS   BANK13         

        CLASS   BANK14         

        CLASS   BANK15         

        CLASS   SFR            

        CLASS   FARRAM         

        CLASS   CONFIG         
                config                            1FFF8    1FFF8        6         0

        CLASS   IDLOC          



SEGMENTS        Name                           Load    Length   Top    Selector   Space  Class

                reset_vec                      000000  000004  000004         0       0  CODE    
                cstackCOMRAM                   000001  00005E  00005F         1       1  COMRAM  
                intcode                        000008  000006  00000E         4       0  CODE    
                intcodelo                      000018  000014  00002C         C       0  CODE    
                cstackBANK0                    000060  0000A0  000100        60       1  BANK0   
                cstackBANK1                    000100  0000CC  0001CC       100       1  BANK1   
                bssBANK2                       000200  0000F9  0002F9       200       1  BANK2   
                smallconst                     001000  0000B4  0010B4       800       0  SMALLCON
                text49                         0010B4  00559F  006653       85A       0  CODE    
                config                         01FFF8  000006  01FFFE     1FFF8       0  CONFIG  


UNUSED ADDRESS RANGES

        Name                Unused          Largest block    Delta
        BANK1            001CC-001FF              34
        BANK10           00A00-00AFF             100
        BANK11           00B00-00BFF             100
        BANK12           00C00-00CFF             100
        BANK13           00D00-00DFF             100
        BANK14           00E00-00E7F              80
        BANK15           00F00-00F5F              60
        BANK2            002F9-002FF               7
        BANK3            00300-003FF             100
        BANK4            00400-004FF             100
        BANK5            00500-005FF             100
        BANK6            00600-006FF             100
        BANK7            00700-007FF             100
        BANK8            00800-008FF             100
        BANK9            00900-009FF             100
        BIGRAM           0005F-0005F               1
                         001CC-001FF              34
                         002F9-00E7F             B87
                         00F00-00F5F              60
        CODE             00004-00007               4
                         0000E-00017               A
                         0002C-00FFF             FD4
                         06653-1FFF7           199A5
        COMRAM           0005F-0005F               1
        CONST            00004-00007               4
                         0000E-00017               A
                         0002C-00FFF             FD4
                         06653-1FFF7           199A5
        MEDIUMCONST      06653-0FFFF            99AD
                         11000-1FFF7            EFF8
        RAM              001CC-001FF              34
                         002F9-00E7F             100
                         00F00-00F5F              60
        SFR              00E80-00EFF              80
                         00F60-00FFF              A0
        SMALLCONST       06653-1FFF7             100
        STACK            002F9-00E7F             B87

                                  Symbol Table

?_ADC_GetConversion                  cstackCOMRAM  00002
?_ARPV4_Lookup                       cstackCOMRAM  00002
?_DEMO_UDP_MeasureTemp               cstackCOMRAM  00006
?_ENCx24_PhyRead                     cstackCOMRAM  0000B
?_ENCx24_Read                        cstackCOMRAM  00005
?_ETH_GetByteCount                   cstackCOMRAM  0000B
?_ETH_Read16                         cstackCOMRAM  00003
?_ETH_Read32                         cstackCOMRAM  00003
?_ETH_ReadBlock                      cstackCOMRAM  00003
?_ETH_RxComputeChecksum              cstackCOMRAM  0000D
?_ETH_TxComputeChecksum              cstackCOMRAM  0000D
?_ETH_readLinkStatus                 cstackCOMRAM  0000B
?_IPV4_GetMyIP                       cstackCOMRAM  00002
?_IPV4_PseudoHeaderChecksum          cstackCOMRAM  00002
?_UDP_GetDestIP                      cstackCOMRAM  00002
?_UDP_GetDestPort                    cstackCOMRAM  00002
?___lwdiv                            cstackCOMRAM  00002
?___lwmod                            cstackCOMRAM  00009
?__doprnt                            cstackCOMRAM  0000E
?_memcmp                             cstackCOMRAM  00002
?_printf                             cstackCOMRAM  0001C
?_sprintf                            cstackCOMRAM  0001C
?_time                               cstackCOMRAM  00002
ADC_GetConversion@channel            cstackCOMRAM  00005
ARPV4_Init@x                         cstackCOMRAM  00002
ARPV4_Lookup@entry_pointer           cstackCOMRAM  0000A
ARPV4_Lookup@ip_address              cstackCOMRAM  00002
ARPV4_Lookup@x                       cstackCOMRAM  0000C
ARPV4_Packet@arpPtr                  cstackCOMRAM  00033
ARPV4_Packet@entryPointer            cstackCOMRAM  00037
ARPV4_Packet@header                  cstackCOMRAM  00039
ARPV4_Packet@length                  cstackCOMRAM  0002F
ARPV4_Packet@mergeFlag               cstackCOMRAM  00031
ARPV4_Packet@ret                     cstackCOMRAM  00032
ARPV4_Packet@x                       cstackCOMRAM  00035
ARPV4_Packet@x_2060                  cstackCOMRAM  00036
ARPV4_Request@destAddress            cstackCOMRAM  0000F
ARPV4_Request@header                 cstackCOMRAM  0002F
ARPV4_Request@ret                    cstackCOMRAM  0002E
ARPV4_Update@entryPointer            cstackCOMRAM  00002
ARPV4_Update@x                       cstackCOMRAM  00004
DEMO_UDP_ClaimIPCheck@ret            cstackCOMRAM  00003
DEMO_UDP_MeasureTemp@adcResult       cstackCOMRAM  00008
DEMO_UDP_Recv@destPort               cstackBANK0   000BF
DEMO_UDP_Recv@dest_ip                cstackBANK0   000C2
DEMO_UDP_Recv@local_ip               cstackBANK0   000B9
DEMO_UDP_Recv@started                cstackBANK0   000C1
DEMO_UDP_Recv@str                    cstackBANK0   00077
DEMO_UDP_Recv@str1                   cstackBANK0   00097
DEMO_UDP_Recv@str2                   cstackBANK0   000A7
DEMO_UDP_Recv@str_len                cstackBANK0   000BE
DEMO_UDP_Recv@temperature            cstackBANK0   000B7
DEMO_UDP_Send@pot_adcResult          cstackBANK0   00070
DEMO_UDP_Send@started                cstackBANK0   0006F
DEMO_UDP_SetClaimIP@claim_ip         cstackCOMRAM  00002
DHCP_Handler@ethMAC                  cstackBANK0   0008C
DHCP_Handler@ethPktMAC               cstackBANK0   00086
DHCP_Handler@ip                      cstackBANK0   00077
DHCP_Handler@length                  cstackCOMRAM  00059
DHCP_Handler@myip                    cstackBANK0   00093
DHCP_Handler@option                  cstackBANK0   00085
DHCP_Handler@optionLength            cstackBANK0   00092
DHCP_Handler@v                       cstackBANK0   0007F
DHCP_Handler@v16                     cstackBANK0   00083
DHCP_Request@ethMAC                  cstackBANK0   00071
DHCP_Request@started                 cstackBANK0   0006F
DHCP_Request@type                    cstackBANK0   00070
DHCP_WriteZeros@length               cstackCOMRAM  00004
ENCx24_BFC@a                         cstackCOMRAM  00008
ENCx24_BFC@bank                      cstackCOMRAM  00007
ENCx24_BFC@bitMask                   cstackCOMRAM  00005
ENCx24_BFS@a                         cstackCOMRAM  00008
ENCx24_BFS@bank                      cstackCOMRAM  00007
ENCx24_BFS@bitMask                   cstackCOMRAM  00005
ENCx24_BankselSPI@a                  cstackCOMRAM  00003
ENCx24_BankselSPI@bank               cstackCOMRAM  00004
ENCx24_PHYWrite@a                    cstackCOMRAM  0000D
ENCx24_PHYWrite@data                 cstackCOMRAM  0000B
ENCx24_PhyRead@a                     cstackCOMRAM  0000D
ENCx24_Read@a                        cstackCOMRAM  0000A
ENCx24_Read@bank                     cstackCOMRAM  00007
ENCx24_Read@v                        cstackCOMRAM  00008
ENCx24_Write@a                       cstackCOMRAM  00008
ENCx24_Write@bank                    cstackCOMRAM  00007
ENCx24_Write@data                    cstackCOMRAM  00005
ETH_CheckLinkUp@ret                  cstackCOMRAM  00013
ETH_CheckLinkUp@value                cstackCOMRAM  0000F
ETH_Copy@len                         cstackCOMRAM  0000D
ETH_Copy@txBufferAddress             cstackCOMRAM  0000F
ETH_Dump@length                      cstackCOMRAM  0000B
ETH_Dump@newRXTail                   cstackCOMRAM  0000D
ETH_EventHandler@eirVal              cstackCOMRAM  00011
ETH_EventHandler@estatVal            cstackCOMRAM  0000F
ETH_EventHandler@mabbipgVal          cstackCOMRAM  0000B
ETH_EventHandler@macon2Val           cstackCOMRAM  0000D
ETH_Flush@newRXTail                  cstackCOMRAM  00009
ETH_GetByteCount@wPtr                cstackCOMRAM  0000D
ETH_GetMAC@macAddr                   cstackCOMRAM  00008
ETH_Init@phcon1_val                  cstackCOMRAM  00016
ETH_Insert@current_tx_pointer        cstackCOMRAM  0000F
ETH_Insert@data                      cstackCOMRAM  00011
ETH_Insert@len                       cstackCOMRAM  0000B
ETH_Insert@offset                    cstackCOMRAM  0000D
ETH_MACRead8@a                       cstackCOMRAM  00007
ETH_MACRead8@bank                    cstackCOMRAM  00006
ETH_MACRead8@v                       cstackCOMRAM  00005
ETH_Read16@ret                       cstackCOMRAM  00005
ETH_Read32@ret                       cstackCOMRAM  00007
ETH_Read8@ret                        cstackCOMRAM  00003
ETH_ReadBlock@data                   cstackCOMRAM  00003
ETH_ReadBlock@len                    cstackCOMRAM  0000A
ETH_ReadBlock@length                 cstackCOMRAM  00005
ETH_ReadBlock@p                      cstackCOMRAM  00008
ETH_RxComputeChecksum@cksm           cstackCOMRAM  00015
ETH_RxComputeChecksum@econ1Val       cstackCOMRAM  00019
ETH_RxComputeChecksum@len            cstackCOMRAM  0000D
ETH_RxComputeChecksum@rxPtr          cstackCOMRAM  00017
ETH_RxComputeChecksum@seed           cstackCOMRAM  0000F
ETH_SetRXptr@address                 cstackCOMRAM  00003
ETH_TxComputeChecksum@cksm           cstackCOMRAM  00017
ETH_TxComputeChecksum@econ1Val       cstackCOMRAM  0001B
ETH_TxComputeChecksum@length         cstackCOMRAM  0000F
ETH_TxComputeChecksum@position       cstackCOMRAM  0000D
ETH_TxComputeChecksum@seed           cstackCOMRAM  00011
ETH_Write16@data                     cstackCOMRAM  00003
ETH_Write32@data                     cstackCOMRAM  00003
ETH_Write8@data                      cstackCOMRAM  00003
ETH_WriteBlock@data                  cstackCOMRAM  00003
ETH_WriteBlock@len                   cstackCOMRAM  00005
ETH_WriteBlock@p                     cstackCOMRAM  00007
ETH_WriteStart@destMAC               cstackCOMRAM  0000B
ETH_WriteStart@type                  cstackCOMRAM  0000D
ICMP_EchoReply@cksm                  cstackBANK0   0006F
ICMP_EchoReply@icmpHdr               cstackBANK0   00074
ICMP_EchoReply@ipv4Hdr               cstackCOMRAM  00058
ICMP_EchoReply@ipv4PayloadLength     cstackBANK0   00071
ICMP_EchoReply@ret                   cstackBANK0   00073
ICMP_Receive@icmpHdr                 cstackBANK0   0007A
ICMP_Receive@ipv4Hdr                 cstackCOMRAM  0005A
IPV4_Packet@cksm                     cstackBANK0   000FC
IPV4_Packet@hdrLen                   cstackBANK0   000F9
IPV4_Packet@length                   cstackBANK0   000FA
IPV4_PseudoHeaderChecksum@cksm       cstackCOMRAM  0000A
IPV4_PseudoHeaderChecksum@len        cstackCOMRAM  00009
IPV4_PseudoHeaderChecksum@payloadLen cstackCOMRAM  00002
IPV4_PseudoHeaderChecksum@tmp        cstackCOMRAM  0000E
IPV4_PseudoHeaderChecksum@v          cstackCOMRAM  00008
IPV4_Send@cksm                       cstackCOMRAM  00024
IPV4_Send@payloadLength              cstackCOMRAM  0001D
IPV4_Send@ret                        cstackCOMRAM  00023
IPV4_Send@totalLength                cstackCOMRAM  00026
IPv4_Start@destAddress               cstackCOMRAM  0004B
IPv4_Start@macAddress                cstackBANK0   00064
IPv4_Start@protocol                  cstackCOMRAM  0004F
IPv4_Start@ret                       cstackBANK0   00066
IPv4_Start@targetAddress             cstackBANK0   00060
LED_Init@x                           cstackCOMRAM  00002
Network_Manage@now                   cstackBANK1   0017E
Network_Manage@nowPv                 bssBANK2      0021E
Network_Read@debug_str               cstackBANK1   00120
Network_Read@header                  cstackBANK1   00170
PL110                                text49        02210
PL112                                text49        02232
PL114                                text49        02278
PL116                                text49        02282
PL118                                text51        02A08
PL120                                text49        022A6
PL122                                text49        022C0
PL124                                text49        022CC
PL126                                text52        04944
PL128                                text49        022EE
PL130                                text44        02F8C
PL132                                text49        02316
PL134                                text49        02332
PL136                                text50        04446
PL138                                text23        0342C
PL140                                text50        04466
PL142                                text49        02344
PL144                                text14        04262
PL146                                text49        0234C
PL148                                text63        036F0
PL150                                text49        02356
PL152                                text21        039CC
PL154                                text44        02FAC
PL156                                text51        02A20
PL158                                text49        02360
PL160                                text49        0237A
PL162                                text51        02A74
PL164                                text49        02394
PL166                                text49        023A2
PL168                                text49        023B0
PL170                                text49        023CA
PL172                                text23        03446
PL174                                text17        03D44
PL176                                text17        03D54
PL178                                text49        023D6
PL180                                text49        023E0
PL182                                text90        04A20
PL184                                text49        023EA
PL186                                text49        023FC
PL188                                text49        0240E
PL190                                text51        02A82
PL192                                text17        03D6C
PL194                                text49        02420
PL196                                text49        02428
PL198                                text44        0300C
PL200                                text63        03762
PL202                                text49        0243A
PL204                                text49        02440
PL206                                text21        03A2C
PL208                                text51        02A9C
PL210                                text49        02452
PL212                                text50        04470
PL214                                text23        03468
PL216                                text23        03472
PL218                                text23        0347C
PL220                                text63        0378A
PL222                                text94        05A42
PL224                                text55        04BCA
PL226                                text22        05068
PL228                                text51        02AA6
PL230                                text63        0379E
PL232                                text51        02AAE
PL234                                text17        03D78
PL236                                text68        04644
PL238                                text21        03A54
PL240                                text44        03034
PL242                                text51        02AB6
PL244                                text21        03A66
PL246                                text17        03D8A
PL248                                text50        0447A
PL250                                text49        0245C
PL252                                text51        02AD2
PL254                                text63        037BA
PL256                                text51        02AE0
PL258                                text51        02AFC
PL260                                text51        02B16
PL262                                text90        04A56
PL264                                text51        02B30
PL266                                text51        02B4A
PL268                                text51        02B64
PL270                                text51        02B7E
PL272                                text21        03A80
PL274                                text51        02B98
PL276                                text98        05836
PL278                                text21        03A9A
PL280                                text51        02BB2
PL282                                text17        03D98
PL284                                text17        03DA0
PL286                                text90        04A70
PL288                                text55        04BEA
PL290                                text63        037D4
PL292                                text90        04A88
PL294                                text21        03AAA
PL296                                text44        0304E
PL298                                text58        05222
PL300                                text99        05992
PL302                                text17        03DA8
PL304                                text14        0427C
PL306                                text51        02BCA
PL308                                text22        05072
PL310                                text50        04488
PL312                                text51        02BD8
PL314                                text51        02BEA
PL316                                text51        02BFC
PL318                                text49        0246A
PL320                                text25        0402C
PL322                                text67        05728
PL324                                text23        03486
PL326                                text49        02472
PL328                                text13        0555A
PL330                                text49        0247C
PL332                                text51        02C0E
PL334                                text51        02C18
PL336                                text68        04656
PL338                                text49        02486
PL340                                text49        02490
PL342                                text50        0449A
PL344                                text49        0249A
PL346                                text55        04C02
PL348                                text49        024A4
PL350                                text49        024AE
PL352                                text49        024B8
PL354                                text49        024C2
PL356                                text49        024D2
PL358                                text51        02C28
PL360                                text51        02C38
PL362                                text83        0515E
PL364                                text50        044A4
PL366                                text51        02C46
PL368                                text44        03064
PL370                                text47        05D1A
PL372                                text17        03DB6
PL374                                text68        04660
PL376                                text49        024DC
PL378                                text49        024EA
PL380                                text49        024F4
PL382                                text49        024FE
PL384                                text49        02508
PL386                                text23        03492
PL388                                text49        02512
PL390                                text51        02C54
PL392                                text49        0251C
PL394                                text14        0428A
PL396                                text51        02C5E
PL398                                text90        04A9E
PL400                                text29        0641E
PL402                                text90        04AAA
PL404                                text75        04E4E
PL406                                text93        0633C
PL408                                text83        0516C
PL410                                text23        0349C
PL412                                text0         04D42
PL414                                text45        04F74
PL416                                text21        03AC0
PL418                                text51        02C6A
PL420                                text44        03072
PL422                                text51        02C74
PL424                                text21        03ACA
PL426                                text49        02526
PL428                                text80        061A6
PL430                                text44        0307C
PL432                                text44        03086
PL434                                text44        03090
PL436                                text17        03DC4
PL438                                text57        055FA
PL440                                text75        04E58
PL442                                text49        02530
PL444                                text44        0309A
PL446                                text87        047EA
PL448                                text44        030A4
PL450                                text75        04E62
PL452                                text63        037DE
PL454                                text51        02C7E
PL456                                text5         054C2
PL458                                text51        02C86
PL460                                text55        04C0C
PL462                                text24        0622A
PL464                                text90        04AB6
PL466                                text17        03DCE
PL468                                text17        03DD8
PL470                                text21        03AD4
PL472                                text21        03ADE
PL474                                text21        03AE8
PL476                                text58        0522C
PL478                                text91        05B44
PL480                                text50        044B2
PL482                                text44        030AE
PL484                                text49        0253A
PL486                                text100       05382
PL488                                text75        04E6A
PL490                                text54        05D6C
PL492                                text51        02C90
PL494                                text25        0403E
PL496                                text76        0592A
PL498                                text5         054C8
SPI_ExchangeByte@v                   cstackCOMRAM  00002
SYSLOG_Init@t                        cstackCOMRAM  00027
SYSLOG_Write@message                 cstackCOMRAM  00027
SYSLOG_Write@t                       cstackCOMRAM  00029
TCB_Reset@tcbPtr                     cstackCOMRAM  00002
TCP_FiniteStateMachine@event         cstackBANK0   000D2
TCP_FiniteStateMachine@nextState     cstackBANK0   000D3
TCP_FiniteStateMachine@notAckBytes   cstackBANK0   000D0
TCP_FiniteStateMachine@ret           cstackBANK0   000CF
TCP_ParseTCPOptions@opt              cstackCOMRAM  00012
TCP_ParseTCPOptions@ret              cstackCOMRAM  00011
TCP_ParseTCPOptions@tcpOptionsSize   cstackCOMRAM  00013
TCP_PayloadSave@buffer_size          cstackBANK0   000C1
TCP_PayloadSave@len                  cstackCOMRAM  0005A
TCP_Recv@count                       cstackBANK0   000F6
TCP_Recv@length                      cstackBANK0   000D8
TCP_Recv@remoteAddress               cstackBANK0   000D4
TCP_Recv@tcbPtr                      cstackBANK0   000F7
TCP_Snd@cksm                         cstackBANK0   00099
TCP_Snd@data                         cstackBANK0   00097
TCP_Snd@payloadLength                cstackBANK0   0009B
TCP_Snd@ret                          cstackBANK0   0009D
TCP_Snd@tcbPtr                       cstackCOMRAM  00058
TCP_Snd@tcpDataLength                cstackBANK0   0009E
TCP_Snd@txHeader                     cstackBANK0   000A0
TCP_Update@count                     cstackBANK0   000DC
TCP_Update@tcbPtr                    cstackBANK0   000DE
UDP_ReadBlock@data                   cstackCOMRAM  0000C
UDP_ReadBlock@length                 cstackCOMRAM  0000E
UDP_Receive@hptr                     cstackBANK0   000D0
UDP_Receive@udpcksm                  cstackBANK0   000C6
UDP_Receive@x                        cstackBANK0   000CE
UDP_Send@cksm                        cstackCOMRAM  0002D
UDP_Send@udpLength                   cstackCOMRAM  0002F
UDP_Start@destIP                     cstackBANK0   00067
UDP_Start@dstPort                    cstackBANK0   0006D
UDP_Start@ret                        cstackCOMRAM  00058
UDP_Start@srcPort                    cstackBANK0   0006B
UDP_Write16@data                     cstackCOMRAM  00005
UDP_Write32@data                     cstackCOMRAM  00007
UDP_Write8@data                      cstackCOMRAM  00004
UDP_WriteBlock@data                  cstackCOMRAM  0000B
UDP_WriteBlock@length                cstackCOMRAM  00009
_ADCON0                              (abs)         00FC2
_ADCON0bits                          (abs)         00FC2
_ADCON1                              (abs)         00FC1
_ADCON2                              (abs)         00FC0
_ADC_GetConversion                   text113       061AE
_ADC_Initialize                      text8         0652A
_ADRES                               (abs)         00FC3
_ADRESH                              (abs)         00FC4
_ADRESL                              (abs)         00FC3
_ARPV4_Init                          text81        0647E
_ARPV4_Lookup                        text96        05C42
_ARPV4_Packet                        text63        034A8
_ARPV4_Request                       text90        0495E
_ARPV4_Update                        text70        0625E
_BAUDCON1                            (abs)         00F7E
_BAUDCON1bits                        (abs)         00F7E
_CREN1                               (abs)         07D5C
_DEMO_UDP_ClaimIPCheck               text112       064B2
_DEMO_UDP_IPLockTimer                text114       06540
_DEMO_UDP_IdlePkt                    text24        06208
_DEMO_UDP_MeasureTemp                text42        064CC
_DEMO_UDP_Recv                       text23        030B8
_DEMO_UDP_Send                       text83        05086
_DEMO_UDP_SetClaimIP                 text115       06642
_DHCP_Handler                        text25        03DE2
_DHCP_Manage                         text67        0569C
_DHCP_Request                        text68        044BC
_DHCP_WriteZeros                     text69        064FC
_ENCx24_BFC                          text103       05F54
_ENCx24_BFS                          text102       05F14
_ENCx24_BankselSPI                   text110       05A4E
_ENCx24_PHYWrite                     text80        06180
_ENCx24_PhyRead                      text79        05ED4
_ENCx24_Read                         text109       05E08
_ENCx24_Write                        text107       05E52
_ETH_CheckLinkUp                     text77        060EE
_ETH_Copy                            text57        0556A
_ETH_Dump                            text48        05DBE
_ETH_EventHandler                    text65        0538A
_ETH_Flush                           text61        060BA
_ETH_GetByteCount                    text108       0642A
_ETH_GetMAC                          text94        059F8
_ETH_Init                            text75        04D4E
_ETH_Insert                          text106       05BA0
_ETH_MACRead8                        text95        06010
_ETH_NextPacketUpdate                text59        05850
_ETH_Read16                          text47        05CDC
_ETH_Read32                          text27        0599C
_ETH_Read8                           text46        06122
_ETH_ReadBlock                       text64        05734
_ETH_ResetByteCount                  text97        0659E
_ETH_ResetReceiver                   text66        05E94
_ETH_RxComputeChecksum               text58        05178
_ETH_SaveRDPT                        text56        0658E
_ETH_Send                            text104       0638A
_ETH_SendSystemReset                 text76        058C0
_ETH_SetPktDec                       text62        06600
_ETH_SetRXptr                        text60        064E4
_ETH_Set_TXRTS                       text105       06618
_ETH_TxComputeChecksum               text100       052E2
_ETH_Write16                         text93        06322
_ETH_Write32                         text89        06288
_ETH_Write8                          text88        06498
_ETH_WriteBlock                      text92        05B4C
_ETH_WriteStart                      text91        05AF8
_ETH_readLinkStatus                  text78        00000
_GIE                                 (abs)         07F97
_GIEH                                (abs)         07F97
_GIEL                                (abs)         07F96
_ICMP_EchoReply                      text55        04AC0
_ICMP_Receive                        text54        05D28
_IPEN                                (abs)         07E87
_IPV4_GetMyIP                        text82        0657C
_IPV4_Init                           text74        0660C
_IPV4_Packet                         text21        037E8
_IPV4_PseudoHeaderChecksum           text53        05604
_IPV4_Send                           text99        05930
_IPv4_Start                          text87        0466E
_LATB3                               (abs)         07C53
_LATBbits                            (abs)         00F8A
_LATDbits                            (abs)         00F8C
_LATE                                (abs)         00F8D
_LATH                                (abs)         00F90
_LATH0                               (abs)         07C80
_LATH1                               (abs)         07C81
_LATH2                               (abs)         07C82
_LATJ                                (abs)         00F91
_LED_Init                            text7         063AC
_Network_Init                        text71        06368
_Network_Manage                      text13        054CE
_Network_Read                        text15        05236
_Network_WaitForLink                 text12        065AE
_OSCCON                              (abs)         00FD3
_OSCTUNE                             (abs)         00F9B
_PORTBbits                           (abs)         00F81
_PORTJ                               (abs)         00F88
_PORTJbits                           (abs)         00F88
_RBPU                                (abs)         07F8F
_SPBRG1                              (abs)         00FAF
_SPEN1                               (abs)         07D5F
_SPI_ExchangeByte                    text111       065E6
_SSP1BUF                             (abs)         00FC9
_SSP1CON1                            (abs)         00FC6
_SSP1CON1bits                        (abs)         00FC6
_SSP1STATbits                        (abs)         00FC7
_SSPBUF                              (abs)         00FC9
_SYSLOG_Init                         text10        06152
_SYSLOG_Write                        text9         062D8
_T1CKPS0                             (abs)         07E6C
_T1CKPS1                             (abs)         07E6D
_T1OSCEN                             (abs)         07E6B
_T1SYNC                              (abs)         07E6A
_TCB_Reset                           text52        047F4
_TCP_FiniteStateMachine              text49        010B4
_TCP_Init                            text73        065D8
_TCP_ParseTCPOptions                 text45        04E70
_TCP_PayloadSave                     text50        04294
_TCP_Recv                            text44        02C98
_TCP_Snd                             text51        02544
_TCP_Update                          text14        04046
_TMR1                                (abs)         00FCE
_TMR1CS                              (abs)         07E69
_TMR1IE                              (abs)         07CE8
_TMR1IF                              (abs)         07CF0
_TMR1IP                              (abs)         07CF8
_TMR1ON                              (abs)         07E68
_TRISA                               (abs)         00F92
_TRISAbits                           (abs)         00F92
_TRISBbits                           (abs)         00F93
_TRISCbits                           (abs)         00F94
_TRISDbits                           (abs)         00F95
_TRISE                               (abs)         00F96
_TRISH                               (abs)         00F99
_TRISJ                               (abs)         00F9A
_TX1IF                               (abs)         07CF4
_TXPacketSize                        bssBANK1      0019E
_TXREG1                              (abs)         00FAD
_TXSTA1                              (abs)         00FAC
_UDP_CallBackTable                   smallconst    01028
_UDP_GetDestIP                       text41        0656A
_UDP_GetDestPort                     text40        06638
_UDP_Read8                           text39        00000
_UDP_ReadBlock                       text43        06556
_UDP_Receive                         text22        04F7E
_UDP_Send                            text98        057C6
_UDP_Start                           text86        05BF4
_UDP_Write16                         text38        00000
_UDP_Write32                         text85        00000
_UDP_Write8                          text84        00000
_UDP_WriteBlock                      text37        00000
__CFG_BW$16                          (abs)         00000
__CFG_CCP2MX$ON                      (abs)         00000
__CFG_CP0$OFF                        (abs)         00000
__CFG_EASHFT$OFF                     (abs)         00000
__CFG_ECCPMX$ON                      (abs)         00000
__CFG_ETHLED$ON                      (abs)         00000
__CFG_FCMEN$ON                       (abs)         00000
__CFG_FOSC$HSPLL                     (abs)         00000
__CFG_FOSC2$ON                       (abs)         00000
__CFG_IESO$ON                        (abs)         00000
__CFG_MODE$MM                        (abs)         00000
__CFG_STVR$ON                        (abs)         00000
__CFG_WAIT$OFF                       (abs)         00000
__CFG_WDT$OFF                        (abs)         00000
__CFG_WDTPS$32768                    (abs)         00000
__CFG_XINST$OFF                      (abs)         00000
__HRAM                               (abs)         00000
__Habs1                              abs1          00000
__Hbank0                             bank0         00000
__Hbank1                             bank1         00000
__Hbank10                            bank10        00000
__Hbank11                            bank11        00000
__Hbank12                            bank12        00000
__Hbank13                            bank13        00000
__Hbank14                            bank14        00000
__Hbank15                            bank15        00000
__Hbank2                             bank2         00000
__Hbank3                             bank3         00000
__Hbank4                             bank4         00000
__Hbank5                             bank5         00000
__Hbank6                             bank6         00000
__Hbank7                             bank7         00000
__Hbank8                             bank8         00000
__Hbank9                             bank9         00000
__Hbigbss                            bigbss        00000
__Hbigdata                           bigdata       00000
__Hbigram                            bigram        00000
__Hbss                               bss           00000
__HbssBANK1                          bssBANK1      00000
__HbssBANK2                          bssBANK2      00000
__HbssCOMRAM                         bssCOMRAM     00000
__Hcinit                             cinit         00000
__Hclrtext                           clrtext       00000
__Hcomram                            comram        00000
__Hconfig                            config        1FFFE
__Hconst                             const         00000
__HcstackBANK0                       cstackBANK0   00000
__HcstackBANK1                       cstackBANK1   00000
__HcstackBANK2                       cstackBANK2   00000
__HcstackCOMRAM                      cstackCOMRAM  00000
__Hdata                              data          00000
__HdataBANK0                         dataBANK0     00000
__Hend_init                          end_init      0002C
__Hfarbss                            farbss        00000
__Hfardata                           fardata       00000
__Hibigdata                          ibigdata      00000
__Hidata                             idata         00000
__HidataBANK0                        idataBANK0    00000
__Hidloc                             idloc         00000
__Hifardata                          ifardata      00000
__Hinit                              init          00028
__Hintcode                           intcode       0000E
__Hintcode_body                      intcode_body  00000
__Hintcodelo                         intcodelo     00028
__Hintentry                          intentry      00000
__Hintret                            intret        00000
__Hintsave_regs                      intsave_regs  00000
__Hirdata                            irdata        00000
__Hjflash_buffer                     jflash_buffer 1F800
__Hmediumconst                       mediumconst   00000
__HnvBANK2                           nvBANK2       00000
__HnvFARRAM                          nvFARRAM      00000
__Hnvbit                             nvbit         00000
__Hnvrram                            nvrram        00000
__Hpa_nodes                          pa_nodes      00000
__Hparam                             rparam        00000
__Hpowerup                           powerup       00028
__Hram                               ram           00000
__Hramtop                            ramtop        01000
__Hrbit                              rbit          00000
__Hrbss                              rbss          00000
__Hrdata                             rdata         00000
__Hreset_vec                         reset_vec     00004
__Hrparam                            rparam        00000
__Hsfr                               sfr           00000
__Hsmallconst                        smallconst    010B4
__Hspace_0                           (abs)         1FFFE
__Hspace_1                           (abs)         002F9
__Hspace_2                           (abs)         00000
__Hstack                             stack         00000
__Hstruct                            struct        00000
__Htemp                              temp          0005F
__Htext                              text          00000
__Htext0                             text0         00000
__Htext1                             text1         00000
__Htext10                            text10        00000
__Htext100                           text100       00000
__Htext101                           text101       00000
__Htext102                           text102       00000
__Htext103                           text103       00000
__Htext104                           text104       00000
__Htext105                           text105       00000
__Htext106                           text106       00000
__Htext107                           text107       00000
__Htext108                           text108       00000
__Htext109                           text109       00000
__Htext11                            text11        00000
__Htext110                           text110       00000
__Htext111                           text111       00000
__Htext112                           text112       00000
__Htext113                           text113       00000
__Htext114                           text114       00000
__Htext115                           text115       00000
__Htext118                           text118       00000
__Htext119                           text119       00000
__Htext12                            text12        00000
__Htext13                            text13        00000
__Htext14                            text14        00000
__Htext15                            text15        00000
__Htext16                            text16        00000
__Htext17                            text17        00000
__Htext18                            text18        00000
__Htext19                            text19        00000
__Htext2                             text2         00000
__Htext20                            text20        00000
__Htext21                            text21        00000
__Htext22                            text22        00000
__Htext23                            text23        00000
__Htext24                            text24        00000
__Htext25                            text25        00000
__Htext26                            text26        00000
__Htext27                            text27        00000
__Htext28                            text28        00000
__Htext29                            text29        00000
__Htext3                             text3         00000
__Htext30                            text30        00000
__Htext31                            text31        00000
__Htext32                            text32        00000
__Htext33                            text33        00000
__Htext34                            text34        00000
__Htext35                            text35        00000
__Htext36                            text36        00000
__Htext37                            text37        00000
__Htext38                            text38        00000
__Htext39                            text39        00000
__Htext4                             text4         00000
__Htext40                            text40        00000
__Htext41                            text41        00000
__Htext42                            text42        00000
__Htext43                            text43        00000
__Htext44                            text44        00000
__Htext45                            text45        00000
__Htext46                            text46        00000
__Htext47                            text47        00000
__Htext48                            text48        00000
__Htext49                            text49        00000
__Htext5                             text5         00000
__Htext50                            text50        00000
__Htext51                            text51        00000
__Htext52                            text52        00000
__Htext53                            text53        00000
__Htext54                            text54        00000
__Htext55                            text55        00000
__Htext56                            text56        00000
__Htext57                            text57        00000
__Htext58                            text58        00000
__Htext59                            text59        00000
__Htext6                             text6         00000
__Htext60                            text60        00000
__Htext61                            text61        00000
__Htext62                            text62        00000
__Htext63                            text63        00000
__Htext64                            text64        00000
__Htext65                            text65        00000
__Htext66                            text66        00000
__Htext67                            text67        00000
__Htext68                            text68        00000
__Htext69                            text69        00000
__Htext7                             text7         00000
__Htext70                            text70        00000
__Htext71                            text71        00000
__Htext72                            text72        00000
__Htext73                            text73        00000
__Htext74                            text74        00000
__Htext75                            text75        00000
__Htext76                            text76        00000
__Htext77                            text77        00000
__Htext78                            text78        00000
__Htext79                            text79        00000
__Htext8                             text8         00000
__Htext80                            text80        00000
__Htext81                            text81        00000
__Htext82                            text82        00000
__Htext83                            text83        00000
__Htext84                            text84        00000
__Htext85                            text85        00000
__Htext86                            text86        00000
__Htext87                            text87        00000
__Htext88                            text88        00000
__Htext89                            text89        00000
__Htext9                             text9         00000
__Htext90                            text90        00000
__Htext91                            text91        00000
__Htext92                            text92        00000
__Htext93                            text93        00000
__Htext94                            text94        00000
__Htext95                            text95        00000
__Htext96                            text96        00000
__Htext97                            text97        00000
__Htext98                            text98        00000
__Htext99                            text99        00000
__LRAM                               (abs)         00001
__Labs1                              abs1          00000
__Lbank0                             bank0         00000
__Lbank1                             bank1         00000
__Lbank10                            bank10        00000
__Lbank11                            bank11        00000
__Lbank12                            bank12        00000
__Lbank13                            bank13        00000
__Lbank14                            bank14        00000
__Lbank15                            bank15        00000
__Lbank2                             bank2         00000
__Lbank3                             bank3         00000
__Lbank4                             bank4         00000
__Lbank5                             bank5         00000
__Lbank6                             bank6         00000
__Lbank7                             bank7         00000
__Lbank8                             bank8         00000
__Lbank9                             bank9         00000
__Lbigbss                            bigbss        00000
__Lbigdata                           bigdata       00000
__Lbigram                            bigram        00000
__Lbss                               bss           00000
__LbssBANK1                          bssBANK1      00000
__LbssBANK2                          bssBANK2      00000
__LbssCOMRAM                         bssCOMRAM     00000
__Lcinit                             cinit         00000
__Lclrtext                           clrtext       00000
__Lcomram                            comram        00000
__Lconfig                            config        1FFF8
__Lconst                             const         00000
__LcstackBANK0                       cstackBANK0   00000
__LcstackBANK1                       cstackBANK1   00000
__LcstackBANK2                       cstackBANK2   00000
__LcstackCOMRAM                      cstackCOMRAM  00000
__Ldata                              data          00000
__LdataBANK0                         dataBANK0     00000
__Lend_init                          end_init      00028
__Lfarbss                            farbss        00000
__Lfardata                           fardata       00000
__Libigdata                          ibigdata      00000
__Lidata                             idata         00000
__LidataBANK0                        idataBANK0    00000
__Lidloc                             idloc         00000
__Lifardata                          ifardata      00000
__Linit                              init          00028
__Lintcode                           intcode       00008
__Lintcode_body                      intcode_body  00000
__Lintcodelo                         intcodelo     00018
__Lintentry                          intentry      00000
__Lintret                            intret        00000
__Lintsave_regs                      intsave_regs  00000
__Lirdata                            irdata        00000
__Ljflash_buffer                     jflash_buffer 1F800
__Lmediumconst                       mediumconst   00000
__LnvBANK2                           nvBANK2       00000
__LnvFARRAM                          nvFARRAM      00000
__Lnvbit                             nvbit         00000
__Lnvrram                            nvrram        00000
__Lpa_nodes                          pa_nodes      00000
__Lparam                             rparam        00000
__Lpowerup                           powerup       00028
__Lram                               ram           00000
__Lramtop                            ramtop        01000
__Lrbit                              rbit          00000
__Lrbss                              rbss          00000
__Lrdata                             rdata         00000
__Lreset_vec                         reset_vec     00000
__Lrparam                            rparam        00000
__Lsfr                               sfr           00000
__Lsmallconst                        smallconst    01000
__Lspace_0                           (abs)         00000
__Lspace_1                           (abs)         00000
__Lspace_2                           (abs)         00000
__Lstack                             stack         00000
__Lstruct                            struct        00000
__Ltemp                              temp          0005E
__Ltext                              text          00000
__Ltext0                             text0         00000
__Ltext1                             text1         00000
__Ltext10                            text10        00000
__Ltext100                           text100       00000
__Ltext101                           text101       00000
__Ltext102                           text102       00000
__Ltext103                           text103       00000
__Ltext104                           text104       00000
__Ltext105                           text105       00000
__Ltext106                           text106       00000
__Ltext107                           text107       00000
__Ltext108                           text108       00000
__Ltext109                           text109       00000
__Ltext11                            text11        00000
__Ltext110                           text110       00000
__Ltext111                           text111       00000
__Ltext112                           text112       00000
__Ltext113                           text113       00000
__Ltext114                           text114       00000
__Ltext115                           text115       00000
__Ltext118                           text118       00000
__Ltext119                           text119       00000
__Ltext12                            text12        00000
__Ltext13                            text13        00000
__Ltext14                            text14        00000
__Ltext15                            text15        00000
__Ltext16                            text16        00000
__Ltext17                            text17        00000
__Ltext18                            text18        00000
__Ltext19                            text19        00000
__Ltext2                             text2         00000
__Ltext20                            text20        00000
__Ltext21                            text21        00000
__Ltext22                            text22        00000
__Ltext23                            text23        00000
__Ltext24                            text24        00000
__Ltext25                            text25        00000
__Ltext26                            text26        00000
__Ltext27                            text27        00000
__Ltext28                            text28        00000
__Ltext29                            text29        00000
__Ltext3                             text3         00000
__Ltext30                            text30        00000
__Ltext31                            text31        00000
__Ltext32                            text32        00000
__Ltext33                            text33        00000
__Ltext34                            text34        00000
__Ltext35                            text35        00000
__Ltext36                            text36        00000
__Ltext37                            text37        00000
__Ltext38                            text38        00000
__Ltext39                            text39        00000
__Ltext4                             text4         00000
__Ltext40                            text40        00000
__Ltext41                            text41        00000
__Ltext42                            text42        00000
__Ltext43                            text43        00000
__Ltext44                            text44        00000
__Ltext45                            text45        00000
__Ltext46                            text46        00000
__Ltext47                            text47        00000
__Ltext48                            text48        00000
__Ltext49                            text49        00000
__Ltext5                             text5         00000
__Ltext50                            text50        00000
__Ltext51                            text51        00000
__Ltext52                            text52        00000
__Ltext53                            text53        00000
__Ltext54                            text54        00000
__Ltext55                            text55        00000
__Ltext56                            text56        00000
__Ltext57                            text57        00000
__Ltext58                            text58        00000
__Ltext59                            text59        00000
__Ltext6                             text6         00000
__Ltext60                            text60        00000
__Ltext61                            text61        00000
__Ltext62                            text62        00000
__Ltext63                            text63        00000
__Ltext64                            text64        00000
__Ltext65                            text65        00000
__Ltext66                            text66        00000
__Ltext67                            text67        00000
__Ltext68                            text68        00000
__Ltext69                            text69        00000
__Ltext7                             text7         00000
__Ltext70                            text70        00000
__Ltext71                            text71        00000
__Ltext72                            text72        00000
__Ltext73                            text73        00000
__Ltext74                            text74        00000
__Ltext75                            text75        00000
__Ltext76                            text76        00000
__Ltext77                            text77        00000
__Ltext78                            text78        00000
__Ltext79                            text79        00000
__Ltext8                             text8         00000
__Ltext80                            text80        00000
__Ltext81                            text81        00000
__Ltext82                            text82        00000
__Ltext83                            text83        00000
__Ltext84                            text84        00000
__Ltext85                            text85        00000
__Ltext86                            text86        00000
__Ltext87                            text87        00000
__Ltext88                            text88        00000
__Ltext89                            text89        00000
__Ltext9                             text9         00000
__Ltext90                            text90        00000
__Ltext91                            text91        00000
__Ltext92                            text92        00000
__Ltext93                            text93        00000
__Ltext94                            text94        00000
__Ltext95                            text95        00000
__Ltext96                            text96        00000
__Ltext97                            text97        00000
__Ltext98                            text98        00000
__Ltext99                            text99        00000
__S0                                 (abs)         1FFFE
__S1                                 (abs)         002F9
__S2                                 (abs)         00000
___extmem_base                       (abs)         20000
___inthi_sp                          stack         00000
___intlo_sp                          stack         00000
___lwdiv                             text20        05D74
___lwdiv@counter                     cstackCOMRAM  00006
___lwdiv@dividend                    cstackCOMRAM  00002
___lwdiv@divisor                     cstackCOMRAM  00004
___lwdiv@quotient                    cstackCOMRAM  00007
___lwmod                             text19        05FD2
___lwmod@counter                     cstackCOMRAM  0000D
___lwmod@dividend                    cstackCOMRAM  00009
___lwmod@divisor                     cstackCOMRAM  0000B
___param_bank                        (abs)         00010
___rparam_used                       (abs)         00001
___sp                                stack         00000
__accesstop                          (abs)         00060
__activetblptr                       (abs)         00003
__doprnt                             text17        03AF2
__doprnt@ap                          cstackCOMRAM  0000F
__doprnt@c                           cstackCOMRAM  0001A
__doprnt@cp                          cstackCOMRAM  00015
__doprnt@f                           cstackCOMRAM  0000E
__doprnt@flag                        cstackCOMRAM  00017
__doprnt@idx                         cstackCOMRAM  00013
__doprnt@pb                          cstackCOMRAM  0001B
__doprnt@prec                        cstackCOMRAM  00014
__doprnt@val                         cstackCOMRAM  00018
__end_ofPL110                        text49        02232
__end_ofPL112                        text49        02278
__end_ofPL114                        text49        02282
__end_ofPL116                        text49        022A6
__end_ofPL118                        text51        02A20
__end_ofPL120                        text49        022C0
__end_ofPL122                        text49        022CC
__end_ofPL124                        text49        022EE
__end_ofPL126                        text52        0495E
__end_ofPL128                        text49        02316
__end_ofPL130                        text44        02FAC
__end_ofPL132                        text49        02332
__end_ofPL134                        text49        02344
__end_ofPL136                        text50        04466
__end_ofPL138                        text23        03446
__end_ofPL140                        text50        04470
__end_ofPL142                        text49        0234C
__end_ofPL144                        text14        0427C
__end_ofPL146                        text49        02356
__end_ofPL148                        text63        03762
__end_ofPL150                        text49        02360
__end_ofPL152                        text21        03A2C
__end_ofPL154                        text44        0300C
__end_ofPL156                        text51        02A74
__end_ofPL158                        text49        0237A
__end_ofPL160                        text49        02394
__end_ofPL162                        text51        02A82
__end_ofPL164                        text49        023A2
__end_ofPL166                        text49        023B0
__end_ofPL168                        text49        023CA
__end_ofPL170                        text49        023D6
__end_ofPL172                        text23        03468
__end_ofPL174                        text17        03D54
__end_ofPL176                        text17        03D6C
__end_ofPL178                        text49        023E0
__end_ofPL180                        text49        023EA
__end_ofPL182                        text90        04A56
__end_ofPL184                        text49        023FC
__end_ofPL186                        text49        0240E
__end_ofPL188                        text49        02420
__end_ofPL190                        text51        02A9C
__end_ofPL192                        text17        03D78
__end_ofPL194                        text49        02428
__end_ofPL196                        text49        0243A
__end_ofPL198                        text44        03034
__end_ofPL200                        text63        0378A
__end_ofPL202                        text49        02440
__end_ofPL204                        text49        02452
__end_ofPL206                        text21        03A54
__end_ofPL208                        text51        02AA6
__end_ofPL210                        text49        0245C
__end_ofPL212                        text50        0447A
__end_ofPL214                        text23        03472
__end_ofPL216                        text23        0347C
__end_ofPL218                        text23        03486
__end_ofPL220                        text63        0379E
__end_ofPL222                        text94        05A4E
__end_ofPL224                        text55        04BEA
__end_ofPL226                        text22        05072
__end_ofPL228                        text51        02AAE
__end_ofPL230                        text63        037BA
__end_ofPL232                        text51        02AB6
__end_ofPL234                        text17        03D8A
__end_ofPL236                        text68        04656
__end_ofPL238                        text21        03A66
__end_ofPL240                        text44        0304E
__end_ofPL242                        text51        02AD2
__end_ofPL244                        text21        03A80
__end_ofPL246                        text17        03D98
__end_ofPL248                        text50        04488
__end_ofPL250                        text49        0246A
__end_ofPL252                        text51        02AE0
__end_ofPL254                        text63        037D4
__end_ofPL256                        text51        02AFC
__end_ofPL258                        text51        02B16
__end_ofPL260                        text51        02B30
__end_ofPL262                        text90        04A70
__end_ofPL264                        text51        02B4A
__end_ofPL266                        text51        02B64
__end_ofPL268                        text51        02B7E
__end_ofPL270                        text51        02B98
__end_ofPL272                        text21        03A9A
__end_ofPL274                        text51        02BB2
__end_ofPL276                        text98        05850
__end_ofPL278                        text21        03AAA
__end_ofPL280                        text51        02BCA
__end_ofPL282                        text17        03DA0
__end_ofPL284                        text17        03DA8
__end_ofPL286                        text90        04A88
__end_ofPL288                        text55        04C02
__end_ofPL290                        text63        037DE
__end_ofPL292                        text90        04A9E
__end_ofPL294                        text21        03AC0
__end_ofPL296                        text44        03064
__end_ofPL298                        text58        0522C
__end_ofPL300                        text99        0599C
__end_ofPL302                        text17        03DB6
__end_ofPL304                        text14        0428A
__end_ofPL306                        text51        02BD8
__end_ofPL308                        text22        05086
__end_ofPL310                        text50        0449A
__end_ofPL312                        text51        02BEA
__end_ofPL314                        text51        02BFC
__end_ofPL316                        text51        02C0E
__end_ofPL318                        text49        02472
__end_ofPL320                        text25        0403E
__end_ofPL322                        text67        05734
__end_ofPL324                        text23        03492
__end_ofPL326                        text49        0247C
__end_ofPL328                        text13        0556A
__end_ofPL330                        text49        02486
__end_ofPL332                        text51        02C18
__end_ofPL334                        text51        02C28
__end_ofPL336                        text68        04660
__end_ofPL338                        text49        02490
__end_ofPL340                        text49        0249A
__end_ofPL342                        text50        044A4
__end_ofPL344                        text49        024A4
__end_ofPL346                        text55        04C0C
__end_ofPL348                        text49        024AE
__end_ofPL350                        text49        024B8
__end_ofPL352                        text49        024C2
__end_ofPL354                        text49        024D2
__end_ofPL356                        text49        024DC
__end_ofPL358                        text51        02C38
__end_ofPL360                        text51        02C46
__end_ofPL362                        text83        0516C
__end_ofPL364                        text50        044B2
__end_ofPL366                        text51        02C54
__end_ofPL368                        text44        03072
__end_ofPL370                        text47        05D28
__end_ofPL372                        text17        03DC4
__end_ofPL374                        text68        0466E
__end_ofPL376                        text49        024EA
__end_ofPL378                        text49        024F4
__end_ofPL380                        text49        024FE
__end_ofPL382                        text49        02508
__end_ofPL384                        text49        02512
__end_ofPL386                        text23        0349C
__end_ofPL388                        text49        0251C
__end_ofPL390                        text51        02C5E
__end_ofPL392                        text49        02526
__end_ofPL394                        text14        04294
__end_ofPL396                        text51        02C6A
__end_ofPL398                        text90        04AAA
__end_ofPL400                        text29        0642A
__end_ofPL402                        text90        04AB6
__end_ofPL404                        text75        04E58
__end_ofPL406                        text93        06346
__end_ofPL408                        text83        05178
__end_ofPL410                        text23        034A8
__end_ofPL412                        text0         04D4E
__end_ofPL414                        text45        04F7E
__end_ofPL416                        text21        03ACA
__end_ofPL418                        text51        02C74
__end_ofPL420                        text44        0307C
__end_ofPL422                        text51        02C7E
__end_ofPL424                        text21        03AD4
__end_ofPL426                        text49        02530
__end_ofPL428                        text80        061AE
__end_ofPL430                        text44        03086
__end_ofPL432                        text44        03090
__end_ofPL434                        text44        0309A
__end_ofPL436                        text17        03DCE
__end_ofPL438                        text57        05604
__end_ofPL440                        text75        04E62
__end_ofPL442                        text49        0253A
__end_ofPL444                        text44        030A4
__end_ofPL446                        text87        047F4
__end_ofPL448                        text44        030AE
__end_ofPL450                        text75        04E6A
__end_ofPL452                        text63        037E8
__end_ofPL454                        text51        02C86
__end_ofPL456                        text5         054C8
__end_ofPL458                        text51        02C90
__end_ofPL460                        text55        04C16
__end_ofPL462                        text24        06234
__end_ofPL464                        text90        04AC0
__end_ofPL466                        text17        03DD8
__end_ofPL468                        text17        03DE2
__end_ofPL470                        text21        03ADE
__end_ofPL472                        text21        03AE8
__end_ofPL474                        text21        03AF2
__end_ofPL476                        text58        05236
__end_ofPL478                        text91        05B4C
__end_ofPL480                        text50        044BC
__end_ofPL482                        text44        030B8
__end_ofPL484                        text49        02544
__end_ofPL486                        text100       0538A
__end_ofPL488                        text75        04E70
__end_ofPL490                        text54        05D74
__end_ofPL492                        text51        02C98
__end_ofPL494                        text25        04046
__end_ofPL496                        text76        05930
__end_ofPL498                        text5         054CE
__end_of_ADC_GetConversion           text113       061DC
__end_of_ADC_Initialize              text8         06540
__end_of_ARPV4_Init                  text81        06498
__end_of_ARPV4_Lookup                text96        05C90
__end_of_ARPV4_Packet                text63        036F0
__end_of_ARPV4_Request               text90        04A20
__end_of_ARPV4_Update                text70        06288
__end_of_DEMO_UDP_ClaimIPCheck       text112       064CC
__end_of_DEMO_UDP_IPLockTimer        text114       06556
__end_of_DEMO_UDP_IdlePkt            text24        0622A
__end_of_DEMO_UDP_MeasureTemp        text42        064E4
__end_of_DEMO_UDP_Recv               text23        0342C
__end_of_DEMO_UDP_Send               text83        0515E
__end_of_DEMO_UDP_SetClaimIP         text115       0664A
__end_of_DHCP_Handler                text25        0402C
__end_of_DHCP_Manage                 text67        05728
__end_of_DHCP_Request                text68        04644
__end_of_DHCP_WriteZeros             text69        06514
__end_of_ENCx24_BFC                  text103       05F94
__end_of_ENCx24_BFS                  text102       05F54
__end_of_ENCx24_BankselSPI           text110       05AA4
__end_of_ENCx24_PHYWrite             text80        061A6
__end_of_ENCx24_PhyRead              text79        05F14
__end_of_ENCx24_Read                 text109       05E52
__end_of_ENCx24_Write                text107       05E94
__end_of_ETH_CheckLinkUp             text77        06122
__end_of_ETH_Copy                    text57        055FA
__end_of_ETH_Dump                    text48        05E08
__end_of_ETH_EventHandler            text65        05430
__end_of_ETH_Flush                   text61        060EE
__end_of_ETH_GetByteCount            text108       06448
__end_of_ETH_GetMAC                  text94        05A42
__end_of_ETH_Init                    text75        04E4E
__end_of_ETH_Insert                  text106       05BF4
__end_of_ETH_MACRead8                text95        0604C
__end_of_ETH_NextPacketUpdate        text59        058C0
__end_of_ETH_Read16                  text47        05D1A
__end_of_ETH_Read32                  text27        059F8
__end_of_ETH_Read8                   text46        06152
__end_of_ETH_ReadBlock               text64        057C6
__end_of_ETH_ResetByteCount          text97        065AE
__end_of_ETH_ResetReceiver           text66        05ED4
__end_of_ETH_RxComputeChecksum       text58        05222
__end_of_ETH_SaveRDPT                text56        0659E
__end_of_ETH_Send                    text104       063AC
__end_of_ETH_SendSystemReset         text76        0592A
__end_of_ETH_SetPktDec               text62        0660C
__end_of_ETH_SetRXptr                text60        064FC
__end_of_ETH_Set_TXRTS               text105       06624
__end_of_ETH_TxComputeChecksum       text100       05382
__end_of_ETH_Write16                 text93        0633C
__end_of_ETH_Write32                 text89        062B0
__end_of_ETH_Write8                  text88        064B2
__end_of_ETH_WriteBlock              text92        05BA0
__end_of_ETH_WriteStart              text91        05B44
__end_of_ETH_readLinkStatus          text78        00000
__end_of_ICMP_EchoReply              text55        04BCA
__end_of_ICMP_Receive                text54        05D6C
__end_of_IPV4_GetMyIP                text82        0658E
__end_of_IPV4_Init                   text74        06618
__end_of_IPV4_Packet                 text21        039CC
__end_of_IPV4_PseudoHeaderChecksum   text53        0569C
__end_of_IPV4_Send                   text99        05992
__end_of_IPv4_Start                  text87        047EA
__end_of_LED_Init                    text7         063CC
__end_of_Network_Init                text71        0638A
__end_of_Network_Manage              text13        0555A
__end_of_Network_Read                text15        052E2
__end_of_Network_WaitForLink         text12        065BC
__end_of_SPI_ExchangeByte            text111       065F4
__end_of_SYSLOG_Init                 text10        06180
__end_of_SYSLOG_Write                text9         062FE
__end_of_TCB_Reset                   text52        04944
__end_of_TCP_FiniteStateMachine      text49        02210
__end_of_TCP_Init                    text73        065E6
__end_of_TCP_ParseTCPOptions         text45        04F74
__end_of_TCP_PayloadSave             text50        04446
__end_of_TCP_Recv                    text44        02F8C
__end_of_TCP_Snd                     text51        02A08
__end_of_TCP_Update                  text14        04262
__end_of_UDP_CallBackTable           smallconst    01037
__end_of_UDP_GetDestIP               text41        0657C
__end_of_UDP_GetDestPort             text40        06642
__end_of_UDP_Read8                   text39        00000
__end_of_UDP_ReadBlock               text43        0656A
__end_of_UDP_Receive                 text22        05068
__end_of_UDP_Send                    text98        05836
__end_of_UDP_Start                   text86        05C42
__end_of_UDP_Write16                 text38        00000
__end_of_UDP_Write32                 text85        00000
__end_of_UDP_Write8                  text84        00000
__end_of_UDP_WriteBlock              text37        00000
__end_of___lwdiv                     text20        05DBE
__end_of___lwmod                     text19        06010
__end_of__doprnt                     text17        03D44
__end_of__initialization             cinit         060B0
__end_of_broadcastMAC                smallconst    0103D
__end_of_dhcpName                    smallconst    01028
__end_of_dpowers                     smallconst    0100B
__end_of_hexpowers                   smallconst    01013
__end_of_high_isr                    intcode_body  06652
__end_of_initHW                      text1         05FD2
__end_of_lcd_busy                    text34        06638
__end_of_lcd_clear                   text35        06368
__end_of_lcd_goto1                   text33        065D8
__end_of_lcd_goto2                   text32        065CA
__end_of_lcd_init                    text5         054C2
__end_of_lcd_init_pins               text6         0662E
__end_of_lcd_putch                   text30        06464
__end_of_lcd_puts                    text29        0641E
__end_of_lcd_write_ctrl              text36        0640C
__end_of_lcd_write_data              text31        063EC
__end_of_low_isr                     intcodelo     00028
__end_of_macAddress                  smallconst    01043
__end_of_main                        text0         04D42
__end_of_memcmp                      text26        05CDC
__end_of_memset                      text28        0625E
__end_of_printf                      text11        06322
__end_of_putch                       text18        0647E
__end_of_rtcc_handler                text118       062D8
__end_of_rtcc_init                   text4         06084
__end_of_spi_init                    text3         06600
__end_of_sprintf                     text16        06208
__end_of_time                        text72        05AF8
__end_of_uart_init                   text2         0652A
__end_of_waitForDMA                  text101       00000
__initialization                     cinit         06084
__mediumconst                        mediumconst   00000
__pbssBANK1                          bssBANK1      00183
__pbssBANK2                          bssBANK2      00200
__pbssCOMRAM                         bssCOMRAM     0005D
__pcinit                             cinit         06084
__pcstackBANK0                       cstackBANK0   00060
__pcstackBANK1                       cstackBANK1   00100
__pcstackBANK2                       cstackBANK2   002BC
__pcstackCOMRAM                      cstackCOMRAM  00001
__pdataBANK0                         dataBANK0     000FF
__pidataBANK0                        idataBANK0    06652
__pintcode                           intcode       00008
__pintcode_body                      intcode_body  0664A
__pintcodelo                         intcodelo     00018
__pnvBANK2                           nvBANK2       002F1
__psmallconst                        smallconst    01000
__ptext0                             text0         04C16
__ptext1                             text1         05F94
__ptext10                            text10        06152
__ptext100                           text100       052E2
__ptext101                           text101       00000
__ptext102                           text102       05F14
__ptext103                           text103       05F54
__ptext104                           text104       0638A
__ptext105                           text105       06618
__ptext106                           text106       05BA0
__ptext107                           text107       05E52
__ptext108                           text108       0642A
__ptext109                           text109       05E08
__ptext11                            text11        062FE
__ptext110                           text110       05A4E
__ptext111                           text111       065E6
__ptext112                           text112       064B2
__ptext113                           text113       061AE
__ptext114                           text114       06540
__ptext115                           text115       06642
__ptext118                           text118       062B0
__ptext119                           text119       00000
__ptext12                            text12        065AE
__ptext13                            text13        054CE
__ptext14                            text14        04046
__ptext15                            text15        05236
__ptext16                            text16        061DC
__ptext17                            text17        03AF2
__ptext18                            text18        06464
__ptext19                            text19        05FD2
__ptext2                             text2         06514
__ptext20                            text20        05D74
__ptext21                            text21        037E8
__ptext22                            text22        04F7E
__ptext23                            text23        030B8
__ptext24                            text24        06208
__ptext25                            text25        03DE2
__ptext26                            text26        05C90
__ptext27                            text27        0599C
__ptext28                            text28        06234
__ptext29                            text29        0640C
__ptext3                             text3         065F4
__ptext30                            text30        06448
__ptext31                            text31        063CC
__ptext32                            text32        065BC
__ptext33                            text33        065CA
__ptext34                            text34        0662E
__ptext35                            text35        06346
__ptext36                            text36        063EC
__ptext37                            text37        00000
__ptext38                            text38        00000
__ptext39                            text39        00000
__ptext4                             text4         0604C
__ptext40                            text40        06638
__ptext41                            text41        0656A
__ptext42                            text42        064CC
__ptext43                            text43        06556
__ptext44                            text44        02C98
__ptext45                            text45        04E70
__ptext46                            text46        06122
__ptext47                            text47        05CDC
__ptext48                            text48        05DBE
__ptext49                            text49        010B4
__ptext5                             text5         05430
__ptext50                            text50        04294
__ptext51                            text51        02544
__ptext52                            text52        047F4
__ptext53                            text53        05604
__ptext54                            text54        05D28
__ptext55                            text55        04AC0
__ptext56                            text56        0658E
__ptext57                            text57        0556A
__ptext58                            text58        05178
__ptext59                            text59        05850
__ptext6                             text6         06624
__ptext60                            text60        064E4
__ptext61                            text61        060BA
__ptext62                            text62        06600
__ptext63                            text63        034A8
__ptext64                            text64        05734
__ptext65                            text65        0538A
__ptext66                            text66        05E94
__ptext67                            text67        0569C
__ptext68                            text68        044BC
__ptext69                            text69        064FC
__ptext7                             text7         063AC
__ptext70                            text70        0625E
__ptext71                            text71        06368
__ptext72                            text72        05AA4
__ptext73                            text73        065D8
__ptext74                            text74        0660C
__ptext75                            text75        04D4E
__ptext76                            text76        058C0
__ptext77                            text77        060EE
__ptext78                            text78        00000
__ptext79                            text79        05ED4
__ptext8                             text8         0652A
__ptext80                            text80        06180
__ptext81                            text81        0647E
__ptext82                            text82        0657C
__ptext83                            text83        05086
__ptext84                            text84        00000
__ptext85                            text85        00000
__ptext86                            text86        05BF4
__ptext87                            text87        0466E
__ptext88                            text88        06498
__ptext89                            text89        06288
__ptext9                             text9         062D8
__ptext90                            text90        0495E
__ptext91                            text91        05AF8
__ptext92                            text92        05B4C
__ptext93                            text93        06322
__ptext94                            text94        059F8
__ptext95                            text95        06010
__ptext96                            text96        05C42
__ptext97                            text97        0659E
__ptext98                            text98        057C6
__ptext99                            text99        05930
__ramtop                             ramtop        01000
__size_of_ADC_GetConversion          (abs)         00000
__size_of_ADC_Initialize             (abs)         00000
__size_of_ARPV4_Init                 (abs)         00000
__size_of_ARPV4_Lookup               (abs)         00000
__size_of_ARPV4_Packet               (abs)         00000
__size_of_ARPV4_Request              (abs)         00000
__size_of_ARPV4_Update               (abs)         00000
__size_of_DEMO_UDP_ClaimIPCheck      (abs)         00000
__size_of_DEMO_UDP_IPLockTimer       (abs)         00000
__size_of_DEMO_UDP_IdlePkt           (abs)         00000
__size_of_DEMO_UDP_MeasureTemp       (abs)         00000
__size_of_DEMO_UDP_Recv              (abs)         00000
__size_of_DEMO_UDP_Send              (abs)         00000
__size_of_DEMO_UDP_SetClaimIP        (abs)         00000
__size_of_DHCP_Handler               (abs)         00000
__size_of_DHCP_Manage                (abs)         00000
__size_of_DHCP_Request               (abs)         00000
__size_of_DHCP_WriteZeros            (abs)         00000
__size_of_ENCx24_BFC                 (abs)         00000
__size_of_ENCx24_BFS                 (abs)         00000
__size_of_ENCx24_BankselSPI          (abs)         00000
__size_of_ENCx24_PHYWrite            (abs)         00000
__size_of_ENCx24_PhyRead             (abs)         00000
__size_of_ENCx24_Read                (abs)         00000
__size_of_ENCx24_Write               (abs)         00000
__size_of_ETH_CheckLinkUp            (abs)         00000
__size_of_ETH_Copy                   (abs)         00000
__size_of_ETH_Dump                   (abs)         00000
__size_of_ETH_EventHandler           (abs)         00000
__size_of_ETH_Flush                  (abs)         00000
__size_of_ETH_GetByteCount           (abs)         00000
__size_of_ETH_GetMAC                 (abs)         00000
__size_of_ETH_Init                   (abs)         00000
__size_of_ETH_Insert                 (abs)         00000
__size_of_ETH_MACRead8               (abs)         00000
__size_of_ETH_NextPacketUpdate       (abs)         00000
__size_of_ETH_Read16                 (abs)         00000
__size_of_ETH_Read32                 (abs)         00000
__size_of_ETH_Read8                  (abs)         00000
__size_of_ETH_ReadBlock              (abs)         00000
__size_of_ETH_ResetByteCount         (abs)         00000
__size_of_ETH_ResetReceiver          (abs)         00000
__size_of_ETH_RxComputeChecksum      (abs)         00000
__size_of_ETH_SaveRDPT               (abs)         00000
__size_of_ETH_Send                   (abs)         00000
__size_of_ETH_SendSystemReset        (abs)         00000
__size_of_ETH_SetPktDec              (abs)         00000
__size_of_ETH_SetRXptr               (abs)         00000
__size_of_ETH_Set_TXRTS              (abs)         00000
__size_of_ETH_TxComputeChecksum      (abs)         00000
__size_of_ETH_Write16                (abs)         00000
__size_of_ETH_Write32                (abs)         00000
__size_of_ETH_Write8                 (abs)         00000
__size_of_ETH_WriteBlock             (abs)         00000
__size_of_ETH_WriteStart             (abs)         00000
__size_of_ETH_readLinkStatus         (abs)         00000
__size_of_ICMP_EchoReply             (abs)         00000
__size_of_ICMP_Receive               (abs)         00000
__size_of_IPV4_GetMyIP               (abs)         00000
__size_of_IPV4_Init                  (abs)         00000
__size_of_IPV4_Packet                (abs)         00000
__size_of_IPV4_PseudoHeaderChecksum  (abs)         00000
__size_of_IPV4_Send                  (abs)         00000
__size_of_IPv4_Start                 (abs)         00000
__size_of_LED_Init                   (abs)         00000
__size_of_Network_Init               (abs)         00000
__size_of_Network_Manage             (abs)         00000
__size_of_Network_Read               (abs)         00000
__size_of_Network_WaitForLink        (abs)         00000
__size_of_SPI_ExchangeByte           (abs)         00000
__size_of_SYSLOG_Init                (abs)         00000
__size_of_SYSLOG_Write               (abs)         00000
__size_of_TCB_Reset                  (abs)         00000
__size_of_TCP_FiniteStateMachine     (abs)         00000
__size_of_TCP_Init                   (abs)         00000
__size_of_TCP_ParseTCPOptions        (abs)         00000
__size_of_TCP_PayloadSave            (abs)         00000
__size_of_TCP_Recv                   (abs)         00000
__size_of_TCP_Snd                    (abs)         00000
__size_of_TCP_Update                 (abs)         00000
__size_of_UDP_GetDestIP              (abs)         00000
__size_of_UDP_GetDestPort            (abs)         00000
__size_of_UDP_Read8                  (abs)         00000
__size_of_UDP_ReadBlock              (abs)         00000
__size_of_UDP_Receive                (abs)         00000
__size_of_UDP_Send                   (abs)         00000
__size_of_UDP_Start                  (abs)         00000
__size_of_UDP_Write16                (abs)         00000
__size_of_UDP_Write32                (abs)         00000
__size_of_UDP_Write8                 (abs)         00000
__size_of_UDP_WriteBlock             (abs)         00000
__size_of___lwdiv                    (abs)         00000
__size_of___lwmod                    (abs)         00000
__size_of__doprnt                    (abs)         00000
__size_of_high_isr                   (abs)         00000
__size_of_initHW                     (abs)         00000
__size_of_lcd_busy                   (abs)         00000
__size_of_lcd_clear                  (abs)         00000
__size_of_lcd_goto1                  (abs)         00000
__size_of_lcd_goto2                  (abs)         00000
__size_of_lcd_init                   (abs)         00000
__size_of_lcd_init_pins              (abs)         00000
__size_of_lcd_putch                  (abs)         00000
__size_of_lcd_puts                   (abs)         00000
__size_of_lcd_write_ctrl             (abs)         00000
__size_of_lcd_write_data             (abs)         00000
__size_of_low_isr                    (abs)         00000
__size_of_main                       (abs)         00000
__size_of_memcmp                     (abs)         00000
__size_of_memset                     (abs)         00000
__size_of_printf                     (abs)         00000
__size_of_putch                      (abs)         00000
__size_of_rtcc_handler               (abs)         00000
__size_of_rtcc_init                  (abs)         00000
__size_of_spi_init                   (abs)         00000
__size_of_sprintf                    (abs)         00000
__size_of_time                       (abs)         00000
__size_of_uart_init                  (abs)         00000
__size_of_waitForDMA                 (abs)         00000
__smallconst                         smallconst    01000
_arpMap                              bssBANK2      0022E
_arpTimer                            bssBANK2      002B8
_broadcastMAC                        smallconst    01037
_claim                               bssBANK1      001B0
_claim_dest_ip                       bssBANK1      0018A
_clientState                         dataBANK0     000FF
_currentTCB                          bssBANK1      001A0
_data                                bssBANK1      001C8
_destPort                            bssBANK1      001A2
_deviceTime                          nvBANK2       002F1
_dhcpLeaseTime                       bssBANK1      0018E
_dhcpName                            smallconst    01013
_dhcpServerId                        bssBANK2      00222
_dpowers                             smallconst    01001
_ethData                             bssBANK1      00183
_ethMAC                              bssBANK2      002B2
_hexpowers                           smallconst    0100B
_high_isr                            intcode       00008
_idle_packet                         bssBANK1      001CA
_idle_pkt_received                   bssBANK1      001B1
_initHW                              text1         05F94
_inlined$_ETH_readLinkStatus         (abs)         00001
_inlined$_UDP_Read8                  (abs)         00001
_inlined$_UDP_Write16                (abs)         00001
_inlined$_UDP_Write32                (abs)         00001
_inlined$_UDP_Write8                 (abs)         00001
_inlined$_UDP_WriteBlock             (abs)         00001
_inlined$_waitForDMA                 (abs)         00001
_ipv4Address                         bssBANK1      00192
_ipv4DNS                             bssBANK2      00210
_ipv4Header                          bssBANK2      00296
_ipv4Router                          bssBANK2      00226
_ipv4SubnetMask                      bssBANK1      00196
_last_bank                           bssBANK1      001B2
_lcd_busy                            text34        0662E
_lcd_clear                           text35        06346
_lcd_goto1                           text33        065CA
_lcd_goto2                           text32        065BC
_lcd_init                            text5         05430
_lcd_init_pins                       text6         06624
_lcd_putch                           text30        06448
_lcd_puts                            text29        0640C
_lcd_write_ctrl                      text36        063EC
_lcd_write_data                      text31        063CC
_led_values                          bssBANK2      00200
_localTime                           nvBANK2       002F5
_low_isr                             intcodelo     00018
_main                                text0         04C16
_memcmp                              text26        05C90
_memset                              text28        06234
_nextAvailablePort                   bssBANK1      001A4
_nextPacketPointer                   bssBANK1      001A6
_pot_init                            bssBANK1      001B3
_pot_initial_adcResult               bssBANK1      001A8
_printf                              text11        062FE
_putch                               text18        06464
_rcvPayloadLen                       bssBANK1      001AA
_receivedRemoteAddress               bssBANK1      0019A
_remoteIpv4Address                   bssBANK2      0022A
_rtcc_handler                        text118       062B0
_rtcc_init                           text4         0604C
_rxPacketStatusVector                bssBANK2      00218
_spi_init                            text3         065F4
_sprintf                             text16        061DC
_tcbList                             bssBANK1      001AC
_tcbListSize                         bssCOMRAM     0005D
_tcpHeader                           bssBANK1      001B4
_tcpMss                              bssBANK1      001AE
_time                                text72        05AA4
_uart_init                           text2         06514
_udpHeader                           bssBANK2      002AA
_waitForDMA                          text101       00000
btemp                                temp          0005E
end_of_initialization                cinit         060B0
int$flags                            temp          0005E
int_func                             intcode_body  0664A
intlevel0                            text          00000
intlevel1                            text          00000
intlevel2                            text          00000
intlevel3                            text          00000
lcd_goto1@pos                        cstackCOMRAM  00003
lcd_goto2@pos                        cstackCOMRAM  00003
lcd_putch@c                          cstackCOMRAM  00003
lcd_puts@s                           cstackCOMRAM  00004
lcd_write_ctrl@c                     cstackCOMRAM  00002
lcd_write_data@d                     cstackCOMRAM  00002
main@ip                              cstackBANK2   002ED
main@ip_timer                        cstackBANK2   002C9
main@no_ip_display                   cstackBANK2   002C4
main@now_p                           cstackBANK2   002C5
main@old_ip                          cstackBANK2   002BC
main@str                             cstackBANK2   002CD
main@t                               cstackBANK2   002C0
memcmp@n                             cstackCOMRAM  00003
memcmp@s1                            cstackCOMRAM  00007
memcmp@s2                            cstackCOMRAM  00002
memset@c                             cstackCOMRAM  00004
memset@n                             cstackCOMRAM  00006
memset@p                             cstackCOMRAM  00008
memset@p1                            cstackCOMRAM  00002
printf@ap                            cstackCOMRAM  00021
printf@f                             cstackCOMRAM  00020
printf@pb                            cstackCOMRAM  00022
putch@data                           cstackCOMRAM  00002
sprintf@ap                           cstackCOMRAM  00027
sprintf@f                            cstackCOMRAM  0001E
sprintf@pb                           cstackCOMRAM  00028
sprintf@wh                           cstackCOMRAM  0001C
stackhi                              (abs)         00E7F
stacklo                              (abs)         002F9
start                                init          00028
start_initialization                 cinit         06084
time@gie_val                         cstackCOMRAM  00006
time@t                               cstackCOMRAM  00002
time@the_time                        cstackCOMRAM  00007
waitForDMA@econ1_val                 cstackCOMRAM  0000B


FUNCTION INFORMATION:

 *************** function _main *****************
 Defined at:
		line 70 in file "main.c"
 Parameters:    Size  Location     Type
		None
 Auto vars:     Size  Location     Type
  now_p           4    9[BANK2 ] long 
  str            32   17[BANK2 ] unsigned char [32]
  ip              4   49[BANK2 ] unsigned long 
  ip_timer        4   13[BANK2 ] long 
  t               4    4[BANK2 ] long 
  old_ip          4    0[BANK2 ] unsigned long 
  no_ip_displa    1    8[BANK2 ] unsigned char 
 Return value:  Size  Location     Type
		None               void
 Registers used:
		wreg, fsr0l, fsr0h, fsr1l, fsr1h, fsr2l, fsr2h, status,2, status,0, pclat, tosl, tblptrl, tblptrh, tblptru, prodl, prodh, cstack
 Tracked objects:
		On entry : 
		On exit  : 
		Unchanged: 
 Data sizes:     COMRAM   BANK0   BANK1   BANK2   BANK3   BANK4   BANK5   BANK6   BANK7   BANK8   BANK9  BANK10  BANK11  BANK12  BANK13  BANK14  BANK15
      Params:         0       0       0       0       0       0       0       0       0       0       0       0       0       0       0       0       0
      Locals:         0       0       0      53       0       0       0       0       0       0       0       0       0       0       0       0       0
      Temps:          0       0       1       0       0       0       0       0       0       0       0       0       0       0       0       0       0
      Totals:         0       0       1      53       0       0       0       0       0       0       0       0       0       0       0       0       0
Total ram usage:       54 bytes
 Hardware stack levels required when called:   16
 This function calls:
		_DEMO_UDP_IPLockTimer
		_DEMO_UDP_Send
		_IPV4_GetMyIP
		_Network_Init
		_Network_Manage
		_Network_WaitForLink
		_SYSLOG_Init
		_SYSLOG_Write
		_initHW
		_lcd_goto1
		_lcd_puts
		_memset
		_sprintf
		_time
 This function is called by:
		Startup code after reset
 This function uses a non-reentrant model


 *************** function _initHW *****************
 Defined at:
		line 50 in file "../board_support_package/picdem2_net/hardware.c"
 Parameters:    Size  Location     Type
		None
 Auto vars:     Size  Location     Type
		None
 Return value:  Size  Location     Type
		None               void
 Registers used:
		wreg, fsr2l, fsr2h, status,2, status,0, prodl, prodh, cstack
 Tracked objects:
		On entry : 
		On exit  : 
		Unchanged: 
 Data sizes:     COMRAM   BANK0   BANK1   BANK2   BANK3   BANK4   BANK5   BANK6   BANK7   BANK8   BANK9  BANK10  BANK11  BANK12  BANK13  BANK14  BANK15
      Params:         0       0       0       0       0       0       0       0       0       0       0       0       0       0       0       0       0
      Locals:         0       0       0       0       0       0       0       0       0       0       0       0       0       0       0       0       0
      Temps:          0       0       0       0       0       0       0       0       0       0       0       0       0       0       0       0       0
      Totals:         0       0       0       0       0       0       0       0       0       0       0       0       0       0       0       0       0
Total ram usage:        0 bytes
 Hardware stack levels used:    1
 Hardware stack levels required when called:    5
 This function calls:
		_ADC_Initialize
		_LED_Init
		_lcd_init
		_rtcc_init
		_spi_init
		_uart_init
 This function is called by:
		_main
 This function uses a non-reentrant model


 *************** function _uart_init *****************
 Defined at:
		line 55 in file "../board_support_package/picdem2_net/uart.c"
 Parameters:    Size  Location     Type
		None
 Auto vars:     Size  Location     Type
		None
 Return value:  Size  Location     Type
		None               void
 Registers used:
		wreg, status,2
 Tracked objects:
		On entry : 
		On exit  : 
		Unchanged: 
 Data sizes:     COMRAM   BANK0   BANK1   BANK2   BANK3   BANK4   BANK5   BANK6   BANK7   BANK8   BANK9  BANK10  BANK11  BANK12  BANK13  BANK14  BANK15
      Params:         0       0       0       0       0       0       0       0       0       0       0       0       0       0       0       0       0
      Locals:         0       0       0       0       0       0       0       0       0       0       0       0       0       0       0       0       0
      Temps:          0       0       0       0       0       0       0       0       0       0       0       0       0       0       0       0       0
      Totals:         0       0       0       0       0       0       0       0       0       0       0       0       0       0       0       0       0
Total ram usage:        0 bytes
 Hardware stack levels used:    1
 Hardware stack levels required when called:    3
 This function calls:
		Nothing
 This function is called by:
		_initHW
 This function uses a non-reentrant model


 *************** function _spi_init *****************
 Defined at:
		line 46 in file "../board_support_package/picdem2_net/mssp_spi_master.c"
 Parameters:    Size  Location     Type
		None
 Auto vars:     Size  Location     Type
		None
 Return value:  Size  Location     Type
		None               void
 Registers used:
		wreg, status,2
 Tracked objects:
		On entry : 
		On exit  : 
		Unchanged: 
 Data sizes:     COMRAM   BANK0   BANK1   BANK2   BANK3   BANK4   BANK5   BANK6   BANK7   BANK8   BANK9  BANK10  BANK11  BANK12  BANK13  BANK14  BANK15
      Params:         0       0       0       0       0       0       0       0       0       0       0       0       0       0       0       0       0
      Locals:         0       0       0       0       0       0       0       0       0       0       0       0       0       0       0       0       0
      Temps:          0       0       0       0       0       0       0       0       0       0       0       0       0       0       0       0       0
      Totals:         0       0       0       0       0       0       0       0       0       0       0       0       0       0       0       0       0
Total ram usage:        0 bytes
 Hardware stack levels used:    1
 Hardware stack levels required when called:    3
 This function calls:
		Nothing
 This function is called by:
		_initHW
 This function uses a non-reentrant model


 *************** function _rtcc_init *****************
 Defined at:
		line 77 in file "../board_support_package/picdem2_net/rtcc.c"
 Parameters:    Size  Location     Type
		None
 Auto vars:     Size  Location     Type
		None
 Return value:  Size  Location     Type
		None               void
 Registers used:
		wreg, status,2
 Tracked objects:
		On entry : 
		On exit  : 
		Unchanged: 
 Data sizes:     COMRAM   BANK0   BANK1   BANK2   BANK3   BANK4   BANK5   BANK6   BANK7   BANK8   BANK9  BANK10  BANK11  BANK12  BANK13  BANK14  BANK15
      Params:         0       0       0       0       0       0       0       0       0       0       0       0       0       0       0       0       0
      Locals:         0       0       0       0       0       0       0       0       0       0       0       0       0       0       0       0       0
      Temps:          0       0       0       0       0       0       0       0       0       0       0       0       0       0       0       0       0
      Totals:         0       0       0       0       0       0       0       0       0       0       0       0       0       0       0       0       0
Total ram usage:        0 bytes
 Hardware stack levels used:    1
 Hardware stack levels required when called:    3
 This function calls:
		Nothing
 This function is called by:
		_initHW
 This function uses a non-reentrant model


 *************** function _lcd_init *****************
 Defined at:
		line 110 in file "../board_support_package/picdem2_net/lcd.c"
 Parameters:    Size  Location     Type
		None
 Auto vars:     Size  Location     Type
  y               2    0        volatile int 
  x               2    0        volatile int 
 Return value:  Size  Location     Type
		None               void
 Registers used:
		wreg, cstack
 Tracked objects:
		On entry : 
		On exit  : 
		Unchanged: 
 Data sizes:     COMRAM   BANK0   BANK1   BANK2   BANK3   BANK4   BANK5   BANK6   BANK7   BANK8   BANK9  BANK10  BANK11  BANK12  BANK13  BANK14  BANK15
      Params:         0       0       0       0       0       0       0       0       0       0       0       0       0       0       0       0       0
      Locals:         0       0       0       0       0       0       0       0       0       0       0       0       0       0       0       0       0
      Temps:          1       0       0       0       0       0       0       0       0       0       0       0       0       0       0       0       0
      Totals:         1       0       0       0       0       0       0       0       0       0       0       0       0       0       0       0       0
Total ram usage:        1 bytes
 Hardware stack levels used:    1
 Hardware stack levels required when called:    4
 This function calls:
		_lcd_busy
		_lcd_init_pins
		_lcd_write_ctrl
 This function is called by:
		_initHW
 This function uses a non-reentrant model


 *************** function _lcd_init_pins *****************
 Defined at:
		line 50 in file "../board_support_package/picdem2_net/lcd_hw.c"
 Parameters:    Size  Location     Type
		None
 Auto vars:     Size  Location     Type
		None
 Return value:  Size  Location     Type
		None               void
 Registers used:
		None
 Tracked objects:
		On entry : 
		On exit  : 
		Unchanged: 
 Data sizes:     COMRAM   BANK0   BANK1   BANK2   BANK3   BANK4   BANK5   BANK6   BANK7   BANK8   BANK9  BANK10  BANK11  BANK12  BANK13  BANK14  BANK15
      Params:         0       0       0       0       0       0       0       0       0       0       0       0       0       0       0       0       0
      Locals:         0       0       0       0       0       0       0       0       0       0       0       0       0       0       0       0       0
      Temps:          0       0       0       0       0       0       0       0       0       0       0       0       0       0       0       0       0
      Totals:         0       0       0       0       0       0       0       0       0       0       0       0       0       0       0       0       0
Total ram usage:        0 bytes
 Hardware stack levels used:    1
 Hardware stack levels required when called:    3
 This function calls:
		Nothing
 This function is called by:
		_lcd_init
 This function uses a non-reentrant model


 *************** function _LED_Init *****************
 Defined at:
		line 55 in file "../board_support_package/picdem2_net/led_driver.c"
 Parameters:    Size  Location     Type
		None
 Auto vars:     Size  Location     Type
  x               1    1[COMRAM] unsigned char 
 Return value:  Size  Location     Type
		None               void
 Registers used:
		wreg, fsr2l, fsr2h, status,2, status,0, prodl, prodh
 Tracked objects:
		On entry : 
		On exit  : 
		Unchanged: 
 Data sizes:     COMRAM   BANK0   BANK1   BANK2   BANK3   BANK4   BANK5   BANK6   BANK7   BANK8   BANK9  BANK10  BANK11  BANK12  BANK13  BANK14  BANK15
      Params:         0       0       0       0       0       0       0       0       0       0       0       0       0       0       0       0       0
      Locals:         1       0       0       0       0       0       0       0       0       0       0       0       0       0       0       0       0
      Temps:          0       0       0       0       0       0       0       0       0       0       0       0       0       0       0       0       0
      Totals:         1       0       0       0       0       0       0       0       0       0       0       0       0       0       0       0       0
Total ram usage:        1 bytes
 Hardware stack levels used:    1
 Hardware stack levels required when called:    3
 This function calls:
		Nothing
 This function is called by:
		_initHW
 This function uses a non-reentrant model


 *************** function _ADC_Initialize *****************
 Defined at:
		line 55 in file "../board_support_package/picdem2_net/adc.c"
 Parameters:    Size  Location     Type
		None
 Auto vars:     Size  Location     Type
		None
 Return value:  Size  Location     Type
		None               void
 Registers used:
		wreg, status,2
 Tracked objects:
		On entry : 
		On exit  : 
		Unchanged: 
 Data sizes:     COMRAM   BANK0   BANK1   BANK2   BANK3   BANK4   BANK5   BANK6   BANK7   BANK8   BANK9  BANK10  BANK11  BANK12  BANK13  BANK14  BANK15
      Params:         0       0       0       0       0       0       0       0       0       0       0       0       0       0       0       0       0
      Locals:         0       0       0       0       0       0       0       0       0       0       0       0       0       0       0       0       0
      Temps:          0       0       0       0       0       0       0       0       0       0       0       0       0       0       0       0       0
      Totals:         0       0       0       0       0       0       0       0       0       0       0       0       0       0       0       0       0
Total ram usage:        0 bytes
 Hardware stack levels used:    1
 Hardware stack levels required when called:    3
 This function calls:
		Nothing
 This function is called by:
		_initHW
 This function uses a non-reentrant model


 *************** function _SYSLOG_Write *****************
 Defined at:
		line 50 in file "../../TCPIP Library/source/syslog.c"
 Parameters:    Size  Location     Type
  message         2   38[COMRAM] PTR const unsigned char 
		 -> main@str(32), STR_5(13), STR_4(17), 
 Auto vars:     Size  Location     Type
  t               2   40[COMRAM] unsigned int 
 Return value:  Size  Location     Type
		None               void
 Registers used:
		wreg, fsr0l, fsr0h, fsr2l, fsr2h, status,2, status,0, pclat, tosl, tblptrl, tblptrh, tblptru, prodl, prodh, cstack
 Tracked objects:
		On entry : 
		On exit  : 
		Unchanged: 
 Data sizes:     COMRAM   BANK0   BANK1   BANK2   BANK3   BANK4   BANK5   BANK6   BANK7   BANK8   BANK9  BANK10  BANK11  BANK12  BANK13  BANK14  BANK15
      Params:         2       0       0       0       0       0       0       0       0       0       0       0       0       0       0       0       0
      Locals:         2       0       0       0       0       0       0       0       0       0       0       0       0       0       0       0       0
      Temps:          0       0       0       0       0       0       0       0       0       0       0       0       0       0       0       0       0
      Totals:         4       0       0       0       0       0       0       0       0       0       0       0       0       0       0       0       0
Total ram usage:        4 bytes
 Hardware stack levels used:    1
 Hardware stack levels required when called:    6
 This function calls:
		_printf
		_time
 This function is called by:
		_main
 This function uses a non-reentrant model


 *************** function _SYSLOG_Init *****************
 Defined at:
		line 43 in file "../../TCPIP Library/source/syslog.c"
 Parameters:    Size  Location     Type
		None
 Auto vars:     Size  Location     Type
  t               4   38[COMRAM] unsigned long 
 Return value:  Size  Location     Type
		None               void
 Registers used:
		wreg, fsr0l, fsr0h, fsr2l, fsr2h, status,2, status,0, pclat, tosl, tblptrl, tblptrh, tblptru, prodl, prodh, cstack
 Tracked objects:
		On entry : 
		On exit  : 
		Unchanged: 
 Data sizes:     COMRAM   BANK0   BANK1   BANK2   BANK3   BANK4   BANK5   BANK6   BANK7   BANK8   BANK9  BANK10  BANK11  BANK12  BANK13  BANK14  BANK15
      Params:         0       0       0       0       0       0       0       0       0       0       0       0       0       0       0       0       0
      Locals:         4       0       0       0       0       0       0       0       0       0       0       0       0       0       0       0       0
      Temps:          0       0       0       0       0       0       0       0       0       0       0       0       0       0       0       0       0
      Totals:         4       0       0       0       0       0       0       0       0       0       0       0       0       0       0       0       0
Total ram usage:        4 bytes
 Hardware stack levels used:    1
 Hardware stack levels required when called:    6
 This function calls:
		_printf
		_time
 This function is called by:
		_main
 This function uses a non-reentrant model


 *************** function _printf *****************
 Defined at:
		line 13 in file "C:\Program Files (x86)\Microchip\xc8\v1.35\sources\common\printf.c"
 Parameters:    Size  Location     Type
  f               1    wreg     PTR const unsigned char 
		 -> STR_3(10), STR_2(28), 
 Auto vars:     Size  Location     Type
  f               1   31[COMRAM] PTR const unsigned char 
		 -> STR_3(10), STR_2(28), 
  pb              5   33[COMRAM] struct __prbuf
  ap              1   32[COMRAM] PTR void [1]
		 -> ?_sprintf(2), ?_printf(2), 
 Return value:  Size  Location     Type
                  2   27[COMRAM] int 
 Registers used:
		wreg, fsr0l, fsr0h, fsr2l, fsr2h, status,2, status,0, pclat, tosl, tblptrl, tblptrh, tblptru, prodl, prodh, cstack
 Tracked objects:
		On entry : 
		On exit  : 
		Unchanged: 
 Data sizes:     COMRAM   BANK0   BANK1   BANK2   BANK3   BANK4   BANK5   BANK6   BANK7   BANK8   BANK9  BANK10  BANK11  BANK12  BANK13  BANK14  BANK15
      Params:         4       0       0       0       0       0       0       0       0       0       0       0       0       0       0       0       0
      Locals:         7       0       0       0       0       0       0       0       0       0       0       0       0       0       0       0       0
      Temps:          0       0       0       0       0       0       0       0       0       0       0       0       0       0       0       0       0
      Totals:        11       0       0       0       0       0       0       0       0       0       0       0       0       0       0       0       0
Total ram usage:       11 bytes
 Hardware stack levels used:    1
 Hardware stack levels required when called:    5
 This function calls:
		__doprnt
 This function is called by:
		_SYSLOG_Init
		_SYSLOG_Write
 This function uses a non-reentrant model


 *************** function _Network_WaitForLink *****************
 Defined at:
		line 76 in file "../../TCPIP Library/source/network.c"
 Parameters:    Size  Location     Type
		None
 Auto vars:     Size  Location     Type
		None
 Return value:  Size  Location     Type
		None               void
 Registers used:
		wreg, status,2, status,0, cstack
 Tracked objects:
		On entry : 
		On exit  : 
		Unchanged: 
 Data sizes:     COMRAM   BANK0   BANK1   BANK2   BANK3   BANK4   BANK5   BANK6   BANK7   BANK8   BANK9  BANK10  BANK11  BANK12  BANK13  BANK14  BANK15
      Params:         0       0       0       0       0       0       0       0       0       0       0       0       0       0       0       0       0
      Locals:         0       0       0       0       0       0       0       0       0       0       0       0       0       0       0       0       0
      Temps:          0       0       0       0       0       0       0       0       0       0       0       0       0       0       0       0       0
      Totals:         0       0       0       0       0       0       0       0       0       0       0       0       0       0       0       0       0
Total ram usage:        0 bytes
 Hardware stack levels used:    1
 Hardware stack levels required when called:    8
 This function calls:
		_ETH_CheckLinkUp
 This function is called by:
		_main
 This function uses a non-reentrant model


 *************** function _Network_Manage *****************
 Defined at:
		line 81 in file "../../TCPIP Library/source/network.c"
 Parameters:    Size  Location     Type
		None
 Auto vars:     Size  Location     Type
  now             4  126[BANK1 ] long 
 Return value:  Size  Location     Type
		None               void
 Registers used:
		wreg, fsr0l, fsr0h, fsr1l, fsr1h, fsr2l, fsr2h, status,2, status,0, pclat, tosl, tblptrl, tblptrh, tblptru, prodl, prodh, cstack
 Tracked objects:
		On entry : 
		On exit  : 
		Unchanged: 
 Data sizes:     COMRAM   BANK0   BANK1   BANK2   BANK3   BANK4   BANK5   BANK6   BANK7   BANK8   BANK9  BANK10  BANK11  BANK12  BANK13  BANK14  BANK15
      Params:         0       0       0       0       0       0       0       0       0       0       0       0       0       0       0       0       0
      Locals:         0       0       4       0       0       0       0       0       0       0       0       0       0       0       0       0       0
      Temps:          0       1       0       0       0       0       0       0       0       0       0       0       0       0       0       0       0
      Totals:         0       1       4       0       0       0       0       0       0       0       0       0       0       0       0       0       0
Total ram usage:        5 bytes
 Hardware stack levels used:    1
 Hardware stack levels required when called:   15
 This function calls:
		_ARPV4_Update
		_DHCP_Manage
		_ETH_EventHandler
		_Network_Read
		_TCP_Update
		_time
 This function is called by:
		_main
 This function uses a non-reentrant model


 *************** function _TCP_Update *****************
 Defined at:
		line 1417 in file "../../TCPIP Library/source/tcpv4.c"
 Parameters:    Size  Location     Type
		None
 Auto vars:     Size  Location     Type
  tcbPtr          2  126[BANK0 ] PTR struct .
		 -> ?_sprintf(2), ?_printf(2), main@str(32), STR_5(13), 
		 -> STR_4(17), Network_Read@debug_str(80), NULL(0), 
  count           2  124[BANK0 ] int 
 Return value:  Size  Location     Type
		None               void
 Registers used:
		wreg, fsr0l, fsr0h, fsr2l, fsr2h, status,2, status,0, tblptrl, tblptrh, tblptru, cstack
 Tracked objects:
		On entry : 
		On exit  : 
		Unchanged: 
 Data sizes:     COMRAM   BANK0   BANK1   BANK2   BANK3   BANK4   BANK5   BANK6   BANK7   BANK8   BANK9  BANK10  BANK11  BANK12  BANK13  BANK14  BANK15
      Params:         0       0       0       0       0       0       0       0       0       0       0       0       0       0       0       0       0
      Locals:         0       4       0       0       0       0       0       0       0       0       0       0       0       0       0       0       0
      Temps:          0       8       0       0       0       0       0       0       0       0       0       0       0       0       0       0       0
      Totals:         0      12       0       0       0       0       0       0       0       0       0       0       0       0       0       0       0
Total ram usage:       12 bytes
 Hardware stack levels used:    1
 Hardware stack levels required when called:   12
 This function calls:
		_TCP_FiniteStateMachine
 This function is called by:
		_Network_Manage
 This function uses a non-reentrant model


 *************** function _Network_Read *****************
 Defined at:
		line 105 in file "../../TCPIP Library/source/network.c"
 Parameters:    Size  Location     Type
		None
 Auto vars:     Size  Location     Type
  debug_str      80   32[BANK1 ] unsigned char [80]
  header         14  112[BANK1 ] struct .
 Return value:  Size  Location     Type
		None               void
 Registers used:
		wreg, fsr0l, fsr0h, fsr1l, fsr1h, fsr2l, fsr2h, status,2, status,0, pclat, tosl, tblptrl, tblptrh, tblptru, prodl, prodh, cstack
 Tracked objects:
		On entry : 
		On exit  : 
		Unchanged: 
 Data sizes:     COMRAM   BANK0   BANK1   BANK2   BANK3   BANK4   BANK5   BANK6   BANK7   BANK8   BANK9  BANK10  BANK11  BANK12  BANK13  BANK14  BANK15
      Params:         0       0       0       0       0       0       0       0       0       0       0       0       0       0       0       0       0
      Locals:         0       0      94       0       0       0       0       0       0       0       0       0       0       0       0       0       0
      Temps:          0       0       4       0       0       0       0       0       0       0       0       0       0       0       0       0       0
      Totals:         0       0      98       0       0       0       0       0       0       0       0       0       0       0       0       0       0
Total ram usage:       98 bytes
 Hardware stack levels used:    1
 Hardware stack levels required when called:   14
 This function calls:
		_ARPV4_Packet
		_ETH_Flush
		_ETH_NextPacketUpdate
		_ETH_ReadBlock
		_IPV4_Packet
		_sprintf
 This function is called by:
		_Network_Manage
 This function uses a non-reentrant model


 *************** function _sprintf *****************
 Defined at:
		line 13 in file "C:\Program Files (x86)\Microchip\xc8\v1.35\sources\common\sprintf.c"
 Parameters:    Size  Location     Type
  wh              2   27[COMRAM] PTR unsigned char 
		 -> main@str(32), Network_Read@debug_str(80), 
  f               1   29[COMRAM] PTR const unsigned char 
		 -> STR_6(12), STR_1(8), 
 Auto vars:     Size  Location     Type
  pb              5   39[COMRAM] struct __prbuf
  ap              1   38[COMRAM] PTR void [1]
		 -> ?_sprintf(2), ?_printf(2), 
 Return value:  Size  Location     Type
                  2   27[COMRAM] int 
 Registers used:
		wreg, fsr0l, fsr0h, fsr2l, fsr2h, status,2, status,0, pclat, tosl, tblptrl, tblptrh, tblptru, prodl, prodh, cstack
 Tracked objects:
		On entry : 
		On exit  : 
		Unchanged: 
 Data sizes:     COMRAM   BANK0   BANK1   BANK2   BANK3   BANK4   BANK5   BANK6   BANK7   BANK8   BANK9  BANK10  BANK11  BANK12  BANK13  BANK14  BANK15
      Params:        11       0       0       0       0       0       0       0       0       0       0       0       0       0       0       0       0
      Locals:         6       0       0       0       0       0       0       0       0       0       0       0       0       0       0       0       0
      Temps:          0       0       0       0       0       0       0       0       0       0       0       0       0       0       0       0       0
      Totals:        17       0       0       0       0       0       0       0       0       0       0       0       0       0       0       0       0
Total ram usage:       17 bytes
 Hardware stack levels used:    1
 Hardware stack levels required when called:    5
 This function calls:
		__doprnt
 This function is called by:
		_Network_Read
		_main
 This function uses a non-reentrant model


 *************** function __doprnt *****************
 Defined at:
		line 458 in file "C:\Program Files (x86)\Microchip\xc8\v1.35\sources\common\doprnt.c"
 Parameters:    Size  Location     Type
  pb              1    wreg     PTR struct __prbuf
		 -> sprintf@pb(5), printf@pb(5), 
  f               1   13[COMRAM] PTR const unsigned char 
		 -> STR_6(12), STR_3(10), STR_2(28), STR_1(8), 
  ap              1   14[COMRAM] PTR PTR void 
		 -> sprintf@ap(1), printf@ap(1), 
 Auto vars:     Size  Location     Type
  pb              1   26[COMRAM] PTR struct __prbuf
		 -> sprintf@pb(5), printf@pb(5), 
  idx             1   18[COMRAM] unsigned char 
  tmpval          4    0        struct .
  val             2   23[COMRAM] unsigned int 
  cp              2   20[COMRAM] PTR const unsigned char 
		 -> ?_sprintf(2), ?_printf(2), STR_7(7), main@str(32), 
		 -> STR_5(13), STR_4(17), Network_Read@debug_str(80), NULL(0), 
  len             2    0        unsigned int 
  c               1   25[COMRAM] char 
  flag            1   22[COMRAM] unsigned char 
  prec            1   19[COMRAM] char 
 Return value:  Size  Location     Type
                  2   13[COMRAM] int 
 Registers used:
		wreg, fsr0l, fsr0h, fsr2l, fsr2h, status,2, status,0, pclat, tosl, tblptrl, tblptrh, tblptru, prodl, prodh, cstack
 Tracked objects:
		On entry : 
		On exit  : 
		Unchanged: 
 Data sizes:     COMRAM   BANK0   BANK1   BANK2   BANK3   BANK4   BANK5   BANK6   BANK7   BANK8   BANK9  BANK10  BANK11  BANK12  BANK13  BANK14  BANK15
      Params:         2       0       0       0       0       0       0       0       0       0       0       0       0       0       0       0       0
      Locals:         9       0       0       0       0       0       0       0       0       0       0       0       0       0       0       0       0
      Temps:          3       0       0       0       0       0       0       0       0       0       0       0       0       0       0       0       0
      Totals:        14       0       0       0       0       0       0       0       0       0       0       0       0       0       0       0       0
Total ram usage:       14 bytes
 Hardware stack levels used:    1
 Hardware stack levels required when called:    4
 This function calls:
		Absolute function
		___lwdiv
		___lwmod
		_putch
 This function is called by:
		_printf
		_sprintf
 This function uses a non-reentrant model


 *************** function _putch *****************
 Defined at:
		line 77 in file "../board_support_package/picdem2_net/uart.c"
 Parameters:    Size  Location     Type
  data            1    wreg     unsigned char 
 Auto vars:     Size  Location     Type
  data            1    1[COMRAM] unsigned char 
 Return value:  Size  Location     Type
		None               void
 Registers used:
		wreg, status,2, status,0
 Tracked objects:
		On entry : 
		On exit  : 
		Unchanged: 
 Data sizes:     COMRAM   BANK0   BANK1   BANK2   BANK3   BANK4   BANK5   BANK6   BANK7   BANK8   BANK9  BANK10  BANK11  BANK12  BANK13  BANK14  BANK15
      Params:         0       0       0       0       0       0       0       0       0       0       0       0       0       0       0       0       0
      Locals:         1       0       0       0       0       0       0       0       0       0       0       0       0       0       0       0       0
      Temps:          0       0       0       0       0       0       0       0       0       0       0       0       0       0       0       0       0
      Totals:         1       0       0       0       0       0       0       0       0       0       0       0       0       0       0       0       0
Total ram usage:        1 bytes
 Hardware stack levels used:    1
 Hardware stack levels required when called:    3
 This function calls:
		Nothing
 This function is called by:
		_printf
		__doprnt
 This function uses a non-reentrant model


 *************** function ___lwmod *****************
 Defined at:
		line 8 in file "C:\Program Files (x86)\Microchip\xc8\v1.35\sources\common\lwmod.c"
 Parameters:    Size  Location     Type
  dividend        2    8[COMRAM] unsigned int 
  divisor         2   10[COMRAM] unsigned int 
 Auto vars:     Size  Location     Type
  counter         1   12[COMRAM] unsigned char 
 Return value:  Size  Location     Type
                  2    8[COMRAM] unsigned int 
 Registers used:
		wreg, status,2, status,0
 Tracked objects:
		On entry : 
		On exit  : 
		Unchanged: 
 Data sizes:     COMRAM   BANK0   BANK1   BANK2   BANK3   BANK4   BANK5   BANK6   BANK7   BANK8   BANK9  BANK10  BANK11  BANK12  BANK13  BANK14  BANK15
      Params:         4       0       0       0       0       0       0       0       0       0       0       0       0       0       0       0       0
      Locals:         1       0       0       0       0       0       0       0       0       0       0       0       0       0       0       0       0
      Temps:          0       0       0       0       0       0       0       0       0       0       0       0       0       0       0       0       0
      Totals:         5       0       0       0       0       0       0       0       0       0       0       0       0       0       0       0       0
Total ram usage:        5 bytes
 Hardware stack levels used:    1
 Hardware stack levels required when called:    3
 This function calls:
		Nothing
 This function is called by:
		__doprnt
 This function uses a non-reentrant model


 *************** function ___lwdiv *****************
 Defined at:
		line 8 in file "C:\Program Files (x86)\Microchip\xc8\v1.35\sources\common\lwdiv.c"
 Parameters:    Size  Location     Type
  dividend        2    1[COMRAM] unsigned int 
  divisor         2    3[COMRAM] unsigned int 
 Auto vars:     Size  Location     Type
  quotient        2    6[COMRAM] unsigned int 
  counter         1    5[COMRAM] unsigned char 
 Return value:  Size  Location     Type
                  2    1[COMRAM] unsigned int 
 Registers used:
		wreg, status,2, status,0
 Tracked objects:
		On entry : 
		On exit  : 
		Unchanged: 
 Data sizes:     COMRAM   BANK0   BANK1   BANK2   BANK3   BANK4   BANK5   BANK6   BANK7   BANK8   BANK9  BANK10  BANK11  BANK12  BANK13  BANK14  BANK15
      Params:         4       0       0       0       0       0       0       0       0       0       0       0       0       0       0       0       0
      Locals:         3       0       0       0       0       0       0       0       0       0       0       0       0       0       0       0       0
      Temps:          0       0       0       0       0       0       0       0       0       0       0       0       0       0       0       0       0
      Totals:         7       0       0       0       0       0       0       0       0       0       0       0       0       0       0       0       0
Total ram usage:        7 bytes
 Hardware stack levels used:    1
 Hardware stack levels required when called:    3
 This function calls:
		Nothing
 This function is called by:
		__doprnt
 This function uses a non-reentrant model


 *************** function _IPV4_Packet *****************
 Defined at:
		line 115 in file "../../TCPIP Library/source/ipv4.c"
 Parameters:    Size  Location     Type
		None
 Auto vars:     Size  Location     Type
  msg            40    0        unsigned char [40]
  cksm            2  156[BANK0 ] unsigned int 
  length          2  154[BANK0 ] unsigned int 
  hdrLen          1  153[BANK0 ] unsigned char 
 Return value:  Size  Location     Type
                  1    wreg      enum E6944
 Registers used:
		wreg, fsr0l, fsr0h, fsr1l, fsr1h, fsr2l, fsr2h, status,2, status,0, pclat, tosl, tblptrl, tblptrh, tblptru, cstack
 Tracked objects:
		On entry : 
		On exit  : 
		Unchanged: 
 Data sizes:     COMRAM   BANK0   BANK1   BANK2   BANK3   BANK4   BANK5   BANK6   BANK7   BANK8   BANK9  BANK10  BANK11  BANK12  BANK13  BANK14  BANK15
      Params:         0       0       0       0       0       0       0       0       0       0       0       0       0       0       0       0       0
      Locals:         0       5       0       0       0       0       0       0       0       0       0       0       0       0       0       0       0
      Temps:          0       0      28       0       0       0       0       0       0       0       0       0       0       0       0       0       0
      Totals:         0       5      28       0       0       0       0       0       0       0       0       0       0       0       0       0       0
Total ram usage:       33 bytes
 Hardware stack levels used:    1
 Hardware stack levels required when called:   13
 This function calls:
		_ETH_Dump
		_ETH_ReadBlock
		_ETH_RxComputeChecksum
		_ICMP_Receive
		_IPV4_PseudoHeaderChecksum
		_TCP_Recv
		_UDP_Receive
 This function is called by:
		_Network_Read
 This function uses a non-reentrant model


 *************** function _UDP_Receive *****************
 Defined at:
		line 126 in file "../../TCPIP Library/source/udpv4.c"
 Parameters:    Size  Location     Type
  udpcksm         2  102[BANK0 ] unsigned int 
 Auto vars:     Size  Location     Type
  x               2  110[BANK0 ] unsigned int 
  hptr            1  112[BANK0 ] PTR const struct .
		 -> UDP_CallBackTable(15), 
  ret             1    0        enum E367
 Return value:  Size  Location     Type
                  1    wreg      enum E6944
 Registers used:
		wreg, fsr0l, fsr0h, fsr1l, fsr1h, fsr2l, fsr2h, status,2, status,0, pclat, tosl, tblptrl, tblptrh, tblptru, cstack
 Tracked objects:
		On entry : 
		On exit  : 
		Unchanged: 
 Data sizes:     COMRAM   BANK0   BANK1   BANK2   BANK3   BANK4   BANK5   BANK6   BANK7   BANK8   BANK9  BANK10  BANK11  BANK12  BANK13  BANK14  BANK15
      Params:         0       2       0       0       0       0       0       0       0       0       0       0       0       0       0       0       0
      Locals:         0       4       0       0       0       0       0       0       0       0       0       0       0       0       0       0       0
      Temps:          0       5       0       0       0       0       0       0       0       0       0       0       0       0       0       0       0
      Totals:         0      11       0       0       0       0       0       0       0       0       0       0       0       0       0       0       0
Total ram usage:       11 bytes
 Hardware stack levels used:    1
 Hardware stack levels required when called:   12
 This function calls:
		_DEMO_UDP_IdlePkt
		_DEMO_UDP_Recv
		_DHCP_Handler
		_ETH_ReadBlock
 This function is called by:
		_IPV4_Packet
 This function uses a non-reentrant model


 *************** function _DEMO_UDP_Recv *****************
 Defined at:
		line 110 in file "udp_demo.c"
 Parameters:    Size  Location     Type
  length          2   88[COMRAM] int 
 Auto vars:     Size  Location     Type
  str            32   23[BANK0 ] unsigned char [32]
  str2           16   71[BANK0 ] unsigned char [16]
  str1           16   55[BANK0 ] unsigned char [16]
  dest_ip         4   98[BANK0 ] unsigned long 
  local_ip        4   89[BANK0 ] unsigned long 
  destPort        2   95[BANK0 ] unsigned int 
  temperature     2   87[BANK0 ] unsigned int 
  started         1   97[BANK0 ] unsigned char 
  str_len         1   94[BANK0 ] unsigned char 
  message         1    0        unsigned char 
 Return value:  Size  Location     Type
		None               void
 Registers used:
		wreg, fsr0l, fsr0h, fsr2l, fsr2h, status,2, status,0, tblptrl, tblptrh, tblptru, cstack
 Tracked objects:
		On entry : 
		On exit  : 
		Unchanged: 
 Data sizes:     COMRAM   BANK0   BANK1   BANK2   BANK3   BANK4   BANK5   BANK6   BANK7   BANK8   BANK9  BANK10  BANK11  BANK12  BANK13  BANK14  BANK15
      Params:         2       0       0       0       0       0       0       0       0       0       0       0       0       0       0       0       0
      Locals:         0      79       0       0       0       0       0       0       0       0       0       0       0       0       0       0       0
      Temps:          0       0       0       0       0       0       0       0       0       0       0       0       0       0       0       0       0
      Totals:         2      79       0       0       0       0       0       0       0       0       0       0       0       0       0       0       0
Total ram usage:       81 bytes
 Hardware stack levels used:    1
 Hardware stack levels required when called:   10
 This function calls:
		_DEMO_UDP_ClaimIPCheck
		_DEMO_UDP_MeasureTemp
		_DEMO_UDP_SetClaimIP
		_UDP_GetDestIP
		_UDP_GetDestPort
		_UDP_Read8
		_UDP_ReadBlock
		_UDP_Send
		_UDP_Start
		_UDP_Write16
		_UDP_Write8
		_UDP_WriteBlock
		_lcd_clear
		_lcd_goto1
		_lcd_goto2
		_lcd_puts
		_memset
 This function is called by:
		_UDP_Receive
 This function uses a non-reentrant model


 *************** function _DEMO_UDP_IdlePkt *****************
 Defined at:
		line 94 in file "udp_demo.c"
 Parameters:    Size  Location     Type
  length          2   88[COMRAM] int 
 Auto vars:     Size  Location     Type
		None
 Return value:  Size  Location     Type
		None               void
 Registers used:
		wreg, fsr0l, fsr0h, status,2, status,0, tblptrl, tblptrh, tblptru, cstack
 Tracked objects:
		On entry : 
		On exit  : 
		Unchanged: 
 Data sizes:     COMRAM   BANK0   BANK1   BANK2   BANK3   BANK4   BANK5   BANK6   BANK7   BANK8   BANK9  BANK10  BANK11  BANK12  BANK13  BANK14  BANK15
      Params:         2       0       0       0       0       0       0       0       0       0       0       0       0       0       0       0       0
      Locals:         0       0       0       0       0       0       0       0       0       0       0       0       0       0       0       0       0
      Temps:          0       0       0       0       0       0       0       0       0       0       0       0       0       0       0       0       0
      Totals:         2       0       0       0       0       0       0       0       0       0       0       0       0       0       0       0       0
Total ram usage:        2 bytes
 Hardware stack levels used:    1
 Hardware stack levels required when called:    6
 This function calls:
		_UDP_ReadBlock
 This function is called by:
		_UDP_Receive
 This function uses a non-reentrant model


 *************** function _DHCP_Handler *****************
 Defined at:
		line 162 in file "../../TCPIP Library/source/dhcp_client.c"
 Parameters:    Size  Location     Type
  length          2   88[COMRAM] int 
 Auto vars:     Size  Location     Type
  optionLength    1   50[BANK0 ] unsigned char 
  option          1   37[BANK0 ] unsigned char 
  ip              8   23[BANK0 ] unsigned int [4]
  ethMAC          6   44[BANK0 ] struct .
  ethPktMAC       6   38[BANK0 ] struct .
  myip            4   51[BANK0 ] unsigned long 
  v               4   31[BANK0 ] unsigned long 
  v16             2   35[BANK0 ] unsigned int 
 Return value:  Size  Location     Type
		None               void
 Registers used:
		wreg, fsr0l, fsr0h, fsr1l, fsr1h, fsr2l, fsr2h, status,2, status,0, tblptrl, tblptrh, tblptru, cstack
 Tracked objects:
		On entry : 
		On exit  : 
		Unchanged: 
 Data sizes:     COMRAM   BANK0   BANK1   BANK2   BANK3   BANK4   BANK5   BANK6   BANK7   BANK8   BANK9  BANK10  BANK11  BANK12  BANK13  BANK14  BANK15
      Params:         2       0       0       0       0       0       0       0       0       0       0       0       0       0       0       0       0
      Locals:         0      32       0       0       0       0       0       0       0       0       0       0       0       0       0       0       0
      Temps:          2       0       0       0       0       0       0       0       0       0       0       0       0       0       0       0       0
      Totals:         4      32       0       0       0       0       0       0       0       0       0       0       0       0       0       0       0
Total ram usage:       36 bytes
 Hardware stack levels used:    1
 Hardware stack levels required when called:   11
 This function calls:
		_DHCP_Request
		_ETH_Dump
		_ETH_GetMAC
		_ETH_Read16
		_ETH_Read32
		_ETH_Read8
		_ETH_ReadBlock
		_memcmp
 This function is called by:
		_UDP_Receive
 This function uses a non-reentrant model


 *************** function _memcmp *****************
 Defined at:
		line 3 in file "C:\Program Files (x86)\Microchip\xc8\v1.35\sources\common\memcmp.c"
 Parameters:    Size  Location     Type
  s1              1    wreg     PTR const void 
		 -> DHCP_Handler@ethPktMAC(6), 
  s2              1    1[COMRAM] PTR const void 
		 -> DHCP_Handler@ethMAC(6), 
  n               2    2[COMRAM] unsigned int 
 Auto vars:     Size  Location     Type
  s1              1    6[COMRAM] PTR const void 
		 -> DHCP_Handler@ethPktMAC(6), 
 Return value:  Size  Location     Type
                  2    1[COMRAM] int 
 Registers used:
		wreg, fsr1l, fsr1h, fsr2l, fsr2h, status,2, status,0
 Tracked objects:
		On entry : 
		On exit  : 
		Unchanged: 
 Data sizes:     COMRAM   BANK0   BANK1   BANK2   BANK3   BANK4   BANK5   BANK6   BANK7   BANK8   BANK9  BANK10  BANK11  BANK12  BANK13  BANK14  BANK15
      Params:         3       0       0       0       0       0       0       0       0       0       0       0       0       0       0       0       0
      Locals:         1       0       0       0       0       0       0       0       0       0       0       0       0       0       0       0       0
      Temps:          2       0       0       0       0       0       0       0       0       0       0       0       0       0       0       0       0
      Totals:         6       0       0       0       0       0       0       0       0       0       0       0       0       0       0       0       0
Total ram usage:        6 bytes
 Hardware stack levels used:    1
 Hardware stack levels required when called:    3
 This function calls:
		Nothing
 This function is called by:
		_DHCP_Handler
 This function uses a non-reentrant model


 *************** function _ETH_Read32 *****************
 Defined at:
		line 277 in file "../../TCPIP Library/ethernet_drivers/encX24j600_spi.c"
 Parameters:    Size  Location     Type
		None
 Auto vars:     Size  Location     Type
  ret             4    6[COMRAM] unsigned long 
 Return value:  Size  Location     Type
                  4    2[COMRAM] unsigned long 
 Registers used:
		wreg, status,2, status,0, cstack
 Tracked objects:
		On entry : 
		On exit  : 
		Unchanged: 
 Data sizes:     COMRAM   BANK0   BANK1   BANK2   BANK3   BANK4   BANK5   BANK6   BANK7   BANK8   BANK9  BANK10  BANK11  BANK12  BANK13  BANK14  BANK15
      Params:         4       0       0       0       0       0       0       0       0       0       0       0       0       0       0       0       0
      Locals:         4       0       0       0       0       0       0       0       0       0       0       0       0       0       0       0       0
      Temps:          0       0       0       0       0       0       0       0       0       0       0       0       0       0       0       0       0
      Totals:         8       0       0       0       0       0       0       0       0       0       0       0       0       0       0       0       0
Total ram usage:        8 bytes
 Hardware stack levels used:    1
 Hardware stack levels required when called:    4
 This function calls:
		_SPI_ExchangeByte
 This function is called by:
		_DHCP_Handler
 This function uses a non-reentrant model


 *************** function _memset *****************
 Defined at:
		line 8 in file "C:\Program Files (x86)\Microchip\xc8\v1.35\sources\common\memset.c"
 Parameters:    Size  Location     Type
  p1              2    1[COMRAM] PTR void 
		 -> DEMO_UDP_Recv@str2(16), DEMO_UDP_Recv@str1(16), DEMO_UDP_Recv@str(32), main@str(32), 
  c               2    3[COMRAM] int 
  n               2    5[COMRAM] unsigned int 
 Auto vars:     Size  Location     Type
  p               2    7[COMRAM] PTR unsigned char 
		 -> DEMO_UDP_Recv@str2(16), DEMO_UDP_Recv@str1(16), DEMO_UDP_Recv@str(32), main@str(32), 
 Return value:  Size  Location     Type
                  2    1[COMRAM] PTR void 
 Registers used:
		wreg, fsr2l, fsr2h, status,2, status,0
 Tracked objects:
		On entry : 
		On exit  : 
		Unchanged: 
 Data sizes:     COMRAM   BANK0   BANK1   BANK2   BANK3   BANK4   BANK5   BANK6   BANK7   BANK8   BANK9  BANK10  BANK11  BANK12  BANK13  BANK14  BANK15
      Params:         6       0       0       0       0       0       0       0       0       0       0       0       0       0       0       0       0
      Locals:         2       0       0       0       0       0       0       0       0       0       0       0       0       0       0       0       0
      Temps:          0       0       0       0       0       0       0       0       0       0       0       0       0       0       0       0       0
      Totals:         8       0       0       0       0       0       0       0       0       0       0       0       0       0       0       0       0
Total ram usage:        8 bytes
 Hardware stack levels used:    1
 Hardware stack levels required when called:    3
 This function calls:
		Nothing
 This function is called by:
		_main
		_DEMO_UDP_Recv
 This function uses a non-reentrant model


 *************** function _lcd_puts *****************
 Defined at:
		line 86 in file "../board_support_package/picdem2_net/lcd.c"
 Parameters:    Size  Location     Type
  s               2    3[COMRAM] PTR const unsigned char 
		 -> DEMO_UDP_Recv@str2(16), DEMO_UDP_Recv@str1(16), DEMO_UDP_Recv@str(32), main@str(32), 
 Auto vars:     Size  Location     Type
		None
 Return value:  Size  Location     Type
		None               void
 Registers used:
		wreg, fsr2l, fsr2h, status,2, status,0, cstack
 Tracked objects:
		On entry : 
		On exit  : 
		Unchanged: 
 Data sizes:     COMRAM   BANK0   BANK1   BANK2   BANK3   BANK4   BANK5   BANK6   BANK7   BANK8   BANK9  BANK10  BANK11  BANK12  BANK13  BANK14  BANK15
      Params:         2       0       0       0       0       0       0       0       0       0       0       0       0       0       0       0       0
      Locals:         0       0       0       0       0       0       0       0       0       0       0       0       0       0       0       0       0
      Temps:          0       0       0       0       0       0       0       0       0       0       0       0       0       0       0       0       0
      Totals:         2       0       0       0       0       0       0       0       0       0       0       0       0       0       0       0       0
Total ram usage:        2 bytes
 Hardware stack levels used:    1
 Hardware stack levels required when called:    5
 This function calls:
		_lcd_putch
 This function is called by:
		_main
		_DEMO_UDP_Recv
 This function uses a non-reentrant model


 *************** function _lcd_putch *****************
 Defined at:
		line 76 in file "../board_support_package/picdem2_net/lcd.c"
 Parameters:    Size  Location     Type
  c               1    wreg     unsigned char 
 Auto vars:     Size  Location     Type
  c               1    2[COMRAM] unsigned char 
 Return value:  Size  Location     Type
		None               void
 Registers used:
		wreg, status,2, status,0, cstack
 Tracked objects:
		On entry : 
		On exit  : 
		Unchanged: 
 Data sizes:     COMRAM   BANK0   BANK1   BANK2   BANK3   BANK4   BANK5   BANK6   BANK7   BANK8   BANK9  BANK10  BANK11  BANK12  BANK13  BANK14  BANK15
      Params:         0       0       0       0       0       0       0       0       0       0       0       0       0       0       0       0       0
      Locals:         1       0       0       0       0       0       0       0       0       0       0       0       0       0       0       0       0
      Temps:          0       0       0       0       0       0       0       0       0       0       0       0       0       0       0       0       0
      Totals:         1       0       0       0       0       0       0       0       0       0       0       0       0       0       0       0       0
Total ram usage:        1 bytes
 Hardware stack levels used:    1
 Hardware stack levels required when called:    4
 This function calls:
		_lcd_busy
		_lcd_write_data
 This function is called by:
		_lcd_puts
 This function uses a non-reentrant model


 *************** function _lcd_write_data *****************
 Defined at:
		line 71 in file "../board_support_package/picdem2_net/lcd_hw.c"
 Parameters:    Size  Location     Type
  d               1    wreg     unsigned char 
 Auto vars:     Size  Location     Type
  d               1    1[COMRAM] unsigned char 
 Return value:  Size  Location     Type
		None               void
 Registers used:
		wreg
 Tracked objects:
		On entry : 
		On exit  : 
		Unchanged: 
 Data sizes:     COMRAM   BANK0   BANK1   BANK2   BANK3   BANK4   BANK5   BANK6   BANK7   BANK8   BANK9  BANK10  BANK11  BANK12  BANK13  BANK14  BANK15
      Params:         0       0       0       0       0       0       0       0       0       0       0       0       0       0       0       0       0
      Locals:         1       0       0       0       0       0       0       0       0       0       0       0       0       0       0       0       0
      Temps:          0       0       0       0       0       0       0       0       0       0       0       0       0       0       0       0       0
      Totals:         1       0       0       0       0       0       0       0       0       0       0       0       0       0       0       0       0
Total ram usage:        1 bytes
 Hardware stack levels used:    1
 Hardware stack levels required when called:    3
 This function calls:
		Nothing
 This function is called by:
		_lcd_putch
 This function uses a non-reentrant model


 *************** function _lcd_goto2 *****************
 Defined at:
		line 102 in file "../board_support_package/picdem2_net/lcd.c"
 Parameters:    Size  Location     Type
  pos             1    wreg     unsigned char 
 Auto vars:     Size  Location     Type
  pos             1    2[COMRAM] unsigned char 
 Return value:  Size  Location     Type
		None               void
 Registers used:
		wreg, status,2, status,0, cstack
 Tracked objects:
		On entry : 
		On exit  : 
		Unchanged: 
 Data sizes:     COMRAM   BANK0   BANK1   BANK2   BANK3   BANK4   BANK5   BANK6   BANK7   BANK8   BANK9  BANK10  BANK11  BANK12  BANK13  BANK14  BANK15
      Params:         0       0       0       0       0       0       0       0       0       0       0       0       0       0       0       0       0
      Locals:         1       0       0       0       0       0       0       0       0       0       0       0       0       0       0       0       0
      Temps:          0       0       0       0       0       0       0       0       0       0       0       0       0       0       0       0       0
      Totals:         1       0       0       0       0       0       0       0       0       0       0       0       0       0       0       0       0
Total ram usage:        1 bytes
 Hardware stack levels used:    1
 Hardware stack levels required when called:    4
 This function calls:
		_lcd_busy
		_lcd_write_ctrl
 This function is called by:
		_DEMO_UDP_Recv
 This function uses a non-reentrant model


 *************** function _lcd_goto1 *****************
 Defined at:
		line 96 in file "../board_support_package/picdem2_net/lcd.c"
 Parameters:    Size  Location     Type
  pos             1    wreg     unsigned char 
 Auto vars:     Size  Location     Type
  pos             1    2[COMRAM] unsigned char 
 Return value:  Size  Location     Type
		None               void
 Registers used:
		wreg, status,2, status,0, cstack
 Tracked objects:
		On entry : 
		On exit  : 
		Unchanged: 
 Data sizes:     COMRAM   BANK0   BANK1   BANK2   BANK3   BANK4   BANK5   BANK6   BANK7   BANK8   BANK9  BANK10  BANK11  BANK12  BANK13  BANK14  BANK15
      Params:         0       0       0       0       0       0       0       0       0       0       0       0       0       0       0       0       0
      Locals:         1       0       0       0       0       0       0       0       0       0       0       0       0       0       0       0       0
      Temps:          0       0       0       0       0       0       0       0       0       0       0       0       0       0       0       0       0
      Totals:         1       0       0       0       0       0       0       0       0       0       0       0       0       0       0       0       0
Total ram usage:        1 bytes
 Hardware stack levels used:    1
 Hardware stack levels required when called:    4
 This function calls:
		_lcd_busy
		_lcd_write_ctrl
 This function is called by:
		_main
		_DEMO_UDP_Recv
 This function uses a non-reentrant model


 *************** function _lcd_busy *****************
 Defined at:
		line 82 in file "../board_support_package/picdem2_net/lcd_hw.c"
 Parameters:    Size  Location     Type
		None
 Auto vars:     Size  Location     Type
		None
 Return value:  Size  Location     Type
		None               void
 Registers used:
		wreg
 Tracked objects:
		On entry : 
		On exit  : 
		Unchanged: 
 Data sizes:     COMRAM   BANK0   BANK1   BANK2   BANK3   BANK4   BANK5   BANK6   BANK7   BANK8   BANK9  BANK10  BANK11  BANK12  BANK13  BANK14  BANK15
      Params:         0       0       0       0       0       0       0       0       0       0       0       0       0       0       0       0       0
      Locals:         0       0       0       0       0       0       0       0       0       0       0       0       0       0       0       0       0
      Temps:          0       0       0       0       0       0       0       0       0       0       0       0       0       0       0       0       0
      Totals:         0       0       0       0       0       0       0       0       0       0       0       0       0       0       0       0       0
Total ram usage:        0 bytes
 Hardware stack levels used:    1
 Hardware stack levels required when called:    3
 This function calls:
		Nothing
 This function is called by:
		_lcd_putch
		_lcd_goto1
		_lcd_goto2
		_lcd_init
 This function uses a non-reentrant model


 *************** function _lcd_clear *****************
 Defined at:
		line 67 in file "../board_support_package/picdem2_net/lcd.c"
 Parameters:    Size  Location     Type
		None
 Auto vars:     Size  Location     Type
		None
 Return value:  Size  Location     Type
		None               void
 Registers used:
		wreg, cstack
 Tracked objects:
		On entry : 
		On exit  : 
		Unchanged: 
 Data sizes:     COMRAM   BANK0   BANK1   BANK2   BANK3   BANK4   BANK5   BANK6   BANK7   BANK8   BANK9  BANK10  BANK11  BANK12  BANK13  BANK14  BANK15
      Params:         0       0       0       0       0       0       0       0       0       0       0       0       0       0       0       0       0
      Locals:         0       0       0       0       0       0       0       0       0       0       0       0       0       0       0       0       0
      Temps:          1       0       0       0       0       0       0       0       0       0       0       0       0       0       0       0       0
      Totals:         1       0       0       0       0       0       0       0       0       0       0       0       0       0       0       0       0
Total ram usage:        1 bytes
 Hardware stack levels used:    1
 Hardware stack levels required when called:    4
 This function calls:
		_lcd_write_ctrl
 This function is called by:
		_DEMO_UDP_Recv
 This function uses a non-reentrant model


 *************** function _lcd_write_ctrl *****************
 Defined at:
		line 59 in file "../board_support_package/picdem2_net/lcd_hw.c"
 Parameters:    Size  Location     Type
  c               1    wreg     unsigned char 
 Auto vars:     Size  Location     Type
  c               1    1[COMRAM] unsigned char 
 Return value:  Size  Location     Type
		None               void
 Registers used:
		wreg
 Tracked objects:
		On entry : 
		On exit  : 
		Unchanged: 
 Data sizes:     COMRAM   BANK0   BANK1   BANK2   BANK3   BANK4   BANK5   BANK6   BANK7   BANK8   BANK9  BANK10  BANK11  BANK12  BANK13  BANK14  BANK15
      Params:         0       0       0       0       0       0       0       0       0       0       0       0       0       0       0       0       0
      Locals:         1       0       0       0       0       0       0       0       0       0       0       0       0       0       0       0       0
      Temps:          0       0       0       0       0       0       0       0       0       0       0       0       0       0       0       0       0
      Totals:         1       0       0       0       0       0       0       0       0       0       0       0       0       0       0       0       0
Total ram usage:        1 bytes
 Hardware stack levels used:    1
 Hardware stack levels required when called:    3
 This function calls:
		Nothing
 This function is called by:
		_lcd_clear
		_lcd_goto1
		_lcd_goto2
		_lcd_init
 This function uses a non-reentrant model


 *************** function _UDP_WriteBlock *****************
 Defined at:
		line 198 in file "../../TCPIP Library/source/udpv4.c"
 Parameters:    Size  Location     Type
  data            1    wreg     PTR void 
		 -> DEMO_UDP_Recv@local_ip(4), 
  length          2    8[COMRAM] unsigned int 
 Auto vars:     Size  Location     Type
  data            1   10[COMRAM] PTR void 
		 -> DEMO_UDP_Recv@local_ip(4), 
 Return value:  Size  Location     Type
		None               void
 Registers used:
		wreg, fsr0l, fsr0h, status,2, status,0, tblptrl, tblptrh, tblptru, cstack
 Tracked objects:
		On entry : 
		On exit  : 
		Unchanged: 
 Data sizes:     COMRAM   BANK0   BANK1   BANK2   BANK3   BANK4   BANK5   BANK6   BANK7   BANK8   BANK9  BANK10  BANK11  BANK12  BANK13  BANK14  BANK15
      Params:         2       0       0       0       0       0       0       0       0       0       0       0       0       0       0       0       0
      Locals:         1       0       0       0       0       0       0       0       0       0       0       0       0       0       0       0       0
      Temps:          0       0       0       0       0       0       0       0       0       0       0       0       0       0       0       0       0
      Totals:         3       0       0       0       0       0       0       0       0       0       0       0       0       0       0       0       0
Total ram usage:        3 bytes
 Hardware stack levels used:    1
 Hardware stack levels required when called:    5
 This function calls:
		_ETH_WriteBlock
 This function is called by:
		_DEMO_UDP_Recv
 This function uses a non-reentrant model


 *************** function _UDP_Write16 *****************
 Defined at:
		line 187 in file "../../TCPIP Library/source/udpv4.c"
 Parameters:    Size  Location     Type
  data            2    4[COMRAM] unsigned int 
 Auto vars:     Size  Location     Type
		None
 Return value:  Size  Location     Type
		None               void
 Registers used:
		wreg, status,2, status,0, cstack
 Tracked objects:
		On entry : 
		On exit  : 
		Unchanged: 
 Data sizes:     COMRAM   BANK0   BANK1   BANK2   BANK3   BANK4   BANK5   BANK6   BANK7   BANK8   BANK9  BANK10  BANK11  BANK12  BANK13  BANK14  BANK15
      Params:         2       0       0       0       0       0       0       0       0       0       0       0       0       0       0       0       0
      Locals:         0       0       0       0       0       0       0       0       0       0       0       0       0       0       0       0       0
      Temps:          0       0       0       0       0       0       0       0       0       0       0       0       0       0       0       0       0
      Totals:         2       0       0       0       0       0       0       0       0       0       0       0       0       0       0       0       0
Total ram usage:        2 bytes
 Hardware stack levels used:    1
 Hardware stack levels required when called:    5
 This function calls:
		_ETH_Write16
 This function is called by:
		_DEMO_UDP_Recv
 This function uses a non-reentrant model


 *************** function _UDP_Read8 *****************
 Defined at:
		line 166 in file "../../TCPIP Library/source/udpv4.c"
 Parameters:    Size  Location     Type
		None
 Auto vars:     Size  Location     Type
		None
 Return value:  Size  Location     Type
                  1    wreg      unsigned char 
 Registers used:
		wreg, status,2, status,0, cstack
 Tracked objects:
		On entry : 
		On exit  : 
		Unchanged: 
 Data sizes:     COMRAM   BANK0   BANK1   BANK2   BANK3   BANK4   BANK5   BANK6   BANK7   BANK8   BANK9  BANK10  BANK11  BANK12  BANK13  BANK14  BANK15
      Params:         0       0       0       0       0       0       0       0       0       0       0       0       0       0       0       0       0
      Locals:         0       0       0       0       0       0       0       0       0       0       0       0       0       0       0       0       0
      Temps:          0       0       0       0       0       0       0       0       0       0       0       0       0       0       0       0       0
      Totals:         0       0       0       0       0       0       0       0       0       0       0       0       0       0       0       0       0
Total ram usage:        0 bytes
 Hardware stack levels used:    1
 Hardware stack levels required when called:    5
 This function calls:
		_ETH_Read8
 This function is called by:
		_DEMO_UDP_Recv
 This function uses a non-reentrant model


 *************** function _UDP_GetDestPort *****************
 Defined at:
		line 209 in file "../../TCPIP Library/source/udpv4.c"
 Parameters:    Size  Location     Type
		None
 Auto vars:     Size  Location     Type
		None
 Return value:  Size  Location     Type
                  2    1[COMRAM] unsigned int 
 Registers used:
		None
 Tracked objects:
		On entry : 
		On exit  : 
		Unchanged: 
 Data sizes:     COMRAM   BANK0   BANK1   BANK2   BANK3   BANK4   BANK5   BANK6   BANK7   BANK8   BANK9  BANK10  BANK11  BANK12  BANK13  BANK14  BANK15
      Params:         2       0       0       0       0       0       0       0       0       0       0       0       0       0       0       0       0
      Locals:         0       0       0       0       0       0       0       0       0       0       0       0       0       0       0       0       0
      Temps:          0       0       0       0       0       0       0       0       0       0       0       0       0       0       0       0       0
      Totals:         2       0       0       0       0       0       0       0       0       0       0       0       0       0       0       0       0
Total ram usage:        2 bytes
 Hardware stack levels used:    1
 Hardware stack levels required when called:    3
 This function calls:
		Nothing
 This function is called by:
		_DEMO_UDP_Recv
 This function uses a non-reentrant model


 *************** function _UDP_GetDestIP *****************
 Defined at:
		line 214 in file "../../TCPIP Library/source/udpv4.c"
 Parameters:    Size  Location     Type
		None
 Auto vars:     Size  Location     Type
		None
 Return value:  Size  Location     Type
                  4    1[COMRAM] unsigned long 
 Registers used:
		None
 Tracked objects:
		On entry : 
		On exit  : 
		Unchanged: 
 Data sizes:     COMRAM   BANK0   BANK1   BANK2   BANK3   BANK4   BANK5   BANK6   BANK7   BANK8   BANK9  BANK10  BANK11  BANK12  BANK13  BANK14  BANK15
      Params:         4       0       0       0       0       0       0       0       0       0       0       0       0       0       0       0       0
      Locals:         0       0       0       0       0       0       0       0       0       0       0       0       0       0       0       0       0
      Temps:          0       0       0       0       0       0       0       0       0       0       0       0       0       0       0       0       0
      Totals:         4       0       0       0       0       0       0       0       0       0       0       0       0       0       0       0       0
Total ram usage:        4 bytes
 Hardware stack levels used:    1
 Hardware stack levels required when called:    3
 This function calls:
		Nothing
 This function is called by:
		_DEMO_UDP_Recv
 This function uses a non-reentrant model


 *************** function _DEMO_UDP_MeasureTemp *****************
 Defined at:
		line 85 in file "udp_demo.c"
 Parameters:    Size  Location     Type
		None
 Auto vars:     Size  Location     Type
  adcResult       2    7[COMRAM] unsigned int 
 Return value:  Size  Location     Type
                  2    5[COMRAM] unsigned int 
 Registers used:
		wreg, status,2, status,0, cstack
 Tracked objects:
		On entry : 
		On exit  : 
		Unchanged: 
 Data sizes:     COMRAM   BANK0   BANK1   BANK2   BANK3   BANK4   BANK5   BANK6   BANK7   BANK8   BANK9  BANK10  BANK11  BANK12  BANK13  BANK14  BANK15
      Params:         2       0       0       0       0       0       0       0       0       0       0       0       0       0       0       0       0
      Locals:         2       0       0       0       0       0       0       0       0       0       0       0       0       0       0       0       0
      Temps:          0       0       0       0       0       0       0       0       0       0       0       0       0       0       0       0       0
      Totals:         4       0       0       0       0       0       0       0       0       0       0       0       0       0       0       0       0
Total ram usage:        4 bytes
 Hardware stack levels used:    1
 Hardware stack levels required when called:    4
 This function calls:
		_ADC_GetConversion
 This function is called by:
		_DEMO_UDP_Recv
 This function uses a non-reentrant model


 *************** function _UDP_ReadBlock *****************
 Defined at:
		line 161 in file "../../TCPIP Library/source/udpv4.c"
 Parameters:    Size  Location     Type
  data            2   11[COMRAM] PTR void 
		 -> DEMO_UDP_Recv@str2(16), DEMO_UDP_Recv@str1(16), DEMO_UDP_Recv@str(32), data(2), 
		 -> idle_packet(2), 
  length          2   13[COMRAM] unsigned int 
 Auto vars:     Size  Location     Type
		None
 Return value:  Size  Location     Type
                  2   11[COMRAM] unsigned int 
 Registers used:
		wreg, fsr0l, fsr0h, status,2, status,0, tblptrl, tblptrh, tblptru, cstack
 Tracked objects:
		On entry : 
		On exit  : 
		Unchanged: 
 Data sizes:     COMRAM   BANK0   BANK1   BANK2   BANK3   BANK4   BANK5   BANK6   BANK7   BANK8   BANK9  BANK10  BANK11  BANK12  BANK13  BANK14  BANK15
      Params:         4       0       0       0       0       0       0       0       0       0       0       0       0       0       0       0       0
      Locals:         0       0       0       0       0       0       0       0       0       0       0       0       0       0       0       0       0
      Temps:          0       0       0       0       0       0       0       0       0       0       0       0       0       0       0       0       0
      Totals:         4       0       0       0       0       0       0       0       0       0       0       0       0       0       0       0       0
Total ram usage:        4 bytes
 Hardware stack levels used:    1
 Hardware stack levels required when called:    5
 This function calls:
		_ETH_ReadBlock
 This function is called by:
		_DEMO_UDP_IdlePkt
		_DEMO_UDP_Recv
 This function uses a non-reentrant model


 *************** function _TCP_Recv *****************
 Defined at:
		line 483 in file "../../TCPIP Library/source/tcpv4.c"
 Parameters:    Size  Location     Type
  remoteAddres    4  116[BANK0 ] unsigned long 
  length          2  120[BANK0 ] unsigned int 
 Auto vars:     Size  Location     Type
  tcbPtr          2  151[BANK0 ] PTR struct .
		 -> ?_sprintf(2), ?_printf(2), main@str(32), STR_5(13), 
		 -> STR_4(17), Network_Read@debug_str(80), NULL(0), 
  count           1  150[BANK0 ] char 
 Return value:  Size  Location     Type
		None               void
 Registers used:
		wreg, fsr0l, fsr0h, fsr2l, fsr2h, status,2, status,0, tblptrl, tblptrh, tblptru, cstack
 Tracked objects:
		On entry : 
		On exit  : 
		Unchanged: 
 Data sizes:     COMRAM   BANK0   BANK1   BANK2   BANK3   BANK4   BANK5   BANK6   BANK7   BANK8   BANK9  BANK10  BANK11  BANK12  BANK13  BANK14  BANK15
      Params:         0       6       0       0       0       0       0       0       0       0       0       0       0       0       0       0       0
      Locals:         0       3       0       0       0       0       0       0       0       0       0       0       0       0       0       0       0
      Temps:          0      28       0       0       0       0       0       0       0       0       0       0       0       0       0       0       0
      Totals:         0      37       0       0       0       0       0       0       0       0       0       0       0       0       0       0       0
Total ram usage:       37 bytes
 Hardware stack levels used:    1
 Hardware stack levels required when called:   12
 This function calls:
		_ETH_ReadBlock
		_TCP_FiniteStateMachine
		_TCP_ParseTCPOptions
 This function is called by:
		_IPV4_Packet
 This function uses a non-reentrant model


 *************** function _TCP_ParseTCPOptions *****************
 Defined at:
		line 356 in file "../../TCPIP Library/source/tcpv4.c"
 Parameters:    Size  Location     Type
		None
 Auto vars:     Size  Location     Type
  tcpOptionsSi    2   18[COMRAM] unsigned int 
  opt             1   17[COMRAM] unsigned char 
  ret             1   16[COMRAM] unsigned char 
 Return value:  Size  Location     Type
                  1    wreg      unsigned char 
 Registers used:
		wreg, status,2, status,0, cstack
 Tracked objects:
		On entry : 
		On exit  : 
		Unchanged: 
 Data sizes:     COMRAM   BANK0   BANK1   BANK2   BANK3   BANK4   BANK5   BANK6   BANK7   BANK8   BANK9  BANK10  BANK11  BANK12  BANK13  BANK14  BANK15
      Params:         0       0       0       0       0       0       0       0       0       0       0       0       0       0       0       0       0
      Locals:         4       0       0       0       0       0       0       0       0       0       0       0       0       0       0       0       0
      Temps:          2       0       0       0       0       0       0       0       0       0       0       0       0       0       0       0       0
      Totals:         6       0       0       0       0       0       0       0       0       0       0       0       0       0       0       0       0
Total ram usage:        6 bytes
 Hardware stack levels used:    1
 Hardware stack levels required when called:    7
 This function calls:
		_ETH_Dump
		_ETH_Read16
		_ETH_Read8
 This function is called by:
		_TCP_Recv
 This function uses a non-reentrant model


 *************** function _ETH_Read8 *****************
 Defined at:
		line 228 in file "../../TCPIP Library/ethernet_drivers/encX24j600_spi.c"
 Parameters:    Size  Location     Type
		None
 Auto vars:     Size  Location     Type
  ret             1    2[COMRAM] unsigned char 
 Return value:  Size  Location     Type
                  1    wreg      unsigned char 
 Registers used:
		wreg, status,2, status,0, cstack
 Tracked objects:
		On entry : 
		On exit  : 
		Unchanged: 
 Data sizes:     COMRAM   BANK0   BANK1   BANK2   BANK3   BANK4   BANK5   BANK6   BANK7   BANK8   BANK9  BANK10  BANK11  BANK12  BANK13  BANK14  BANK15
      Params:         0       0       0       0       0       0       0       0       0       0       0       0       0       0       0       0       0
      Locals:         1       0       0       0       0       0       0       0       0       0       0       0       0       0       0       0       0
      Temps:          0       0       0       0       0       0       0       0       0       0       0       0       0       0       0       0       0
      Totals:         1       0       0       0       0       0       0       0       0       0       0       0       0       0       0       0       0
Total ram usage:        1 bytes
 Hardware stack levels used:    1
 Hardware stack levels required when called:    4
 This function calls:
		_SPI_ExchangeByte
 This function is called by:
		_DHCP_Handler
		_TCP_ParseTCPOptions
		_UDP_Read8
 This function uses a non-reentrant model


 *************** function _ETH_Read16 *****************
 Defined at:
		line 252 in file "../../TCPIP Library/ethernet_drivers/encX24j600_spi.c"
 Parameters:    Size  Location     Type
		None
 Auto vars:     Size  Location     Type
  ret             2    4[COMRAM] unsigned int 
 Return value:  Size  Location     Type
                  2    2[COMRAM] unsigned int 
 Registers used:
		wreg, status,2, status,0, cstack
 Tracked objects:
		On entry : 
		On exit  : 
		Unchanged: 
 Data sizes:     COMRAM   BANK0   BANK1   BANK2   BANK3   BANK4   BANK5   BANK6   BANK7   BANK8   BANK9  BANK10  BANK11  BANK12  BANK13  BANK14  BANK15
      Params:         2       0       0       0       0       0       0       0       0       0       0       0       0       0       0       0       0
      Locals:         2       0       0       0       0       0       0       0       0       0       0       0       0       0       0       0       0
      Temps:          0       0       0       0       0       0       0       0       0       0       0       0       0       0       0       0       0
      Totals:         4       0       0       0       0       0       0       0       0       0       0       0       0       0       0       0       0
Total ram usage:        4 bytes
 Hardware stack levels used:    1
 Hardware stack levels required when called:    4
 This function calls:
		_SPI_ExchangeByte
 This function is called by:
		_DHCP_Handler
		_TCP_ParseTCPOptions
 This function uses a non-reentrant model


 *************** function _ETH_Dump *****************
 Defined at:
		line 324 in file "../../TCPIP Library/ethernet_drivers/encX24J600_driver.c"
 Parameters:    Size  Location     Type
  length          2   10[COMRAM] unsigned int 
 Auto vars:     Size  Location     Type
  newRXTail       2   12[COMRAM] unsigned int 
 Return value:  Size  Location     Type
		None               void
 Registers used:
		wreg, status,2, status,0, cstack
 Tracked objects:
		On entry : 
		On exit  : 
		Unchanged: 
 Data sizes:     COMRAM   BANK0   BANK1   BANK2   BANK3   BANK4   BANK5   BANK6   BANK7   BANK8   BANK9  BANK10  BANK11  BANK12  BANK13  BANK14  BANK15
      Params:         2       0       0       0       0       0       0       0       0       0       0       0       0       0       0       0       0
      Locals:         2       0       0       0       0       0       0       0       0       0       0       0       0       0       0       0       0
      Temps:          0       0       0       0       0       0       0       0       0       0       0       0       0       0       0       0       0
      Totals:         4       0       0       0       0       0       0       0       0       0       0       0       0       0       0       0       0
Total ram usage:        4 bytes
 Hardware stack levels used:    1
 Hardware stack levels required when called:    6
 This function calls:
		_ENCx24_Read
		_ENCx24_Write
 This function is called by:
		_DHCP_Handler
		_IPV4_Packet
		_TCP_ParseTCPOptions
 This function uses a non-reentrant model


 *************** function _TCP_FiniteStateMachine *****************
 Defined at:
		line 602 in file "../../TCPIP Library/source/tcpv4.c"
 Parameters:    Size  Location     Type
		None
 Auto vars:     Size  Location     Type
  notAckBytes     2  112[BANK0 ] unsigned int 
  nextState       1  115[BANK0 ] enum E638
  event           1  114[BANK0 ] enum E651
  ret             1  111[BANK0 ] unsigned char 
 Return value:  Size  Location     Type
                  1    wreg      unsigned char 
 Registers used:
		wreg, fsr0l, fsr0h, fsr2l, fsr2h, status,2, status,0, tblptrl, tblptrh, tblptru, cstack
 Tracked objects:
		On entry : 
		On exit  : 
		Unchanged: 
 Data sizes:     COMRAM   BANK0   BANK1   BANK2   BANK3   BANK4   BANK5   BANK6   BANK7   BANK8   BANK9  BANK10  BANK11  BANK12  BANK13  BANK14  BANK15
      Params:         0       0       0       0       0       0       0       0       0       0       0       0       0       0       0       0       0
      Locals:         0       5       0       0       0       0       0       0       0       0       0       0       0       0       0       0       0
      Temps:          0      12       0       0       0       0       0       0       0       0       0       0       0       0       0       0       0
      Totals:         0      17       0       0       0       0       0       0       0       0       0       0       0       0       0       0       0
Total ram usage:       17 bytes
 Hardware stack levels used:    1
 Hardware stack levels required when called:   11
 This function calls:
		_TCB_Reset
		_TCP_PayloadSave
		_TCP_Snd
 This function is called by:
		_TCP_Recv
		_TCP_Update
 This function uses a non-reentrant model


 *************** function _TCP_PayloadSave *****************
 Defined at:
		line 310 in file "../../TCPIP Library/source/tcpv4.c"
 Parameters:    Size  Location     Type
  len             2   89[COMRAM] unsigned int 
 Auto vars:     Size  Location     Type
  buffer_size     2   97[BANK0 ] unsigned int 
  ret             1    0        unsigned char 
 Return value:  Size  Location     Type
                  1    wreg      unsigned char 
 Registers used:
		wreg, fsr0l, fsr0h, fsr2l, fsr2h, status,2, status,0, tblptrl, tblptrh, tblptru, cstack
 Tracked objects:
		On entry : 
		On exit  : 
		Unchanged: 
 Data sizes:     COMRAM   BANK0   BANK1   BANK2   BANK3   BANK4   BANK5   BANK6   BANK7   BANK8   BANK9  BANK10  BANK11  BANK12  BANK13  BANK14  BANK15
      Params:         2       0       0       0       0       0       0       0       0       0       0       0       0       0       0       0       0
      Locals:         0       3       0       0       0       0       0       0       0       0       0       0       0       0       0       0       0
      Temps:          0      12       0       0       0       0       0       0       0       0       0       0       0       0       0       0       0
      Totals:         2      15       0       0       0       0       0       0       0       0       0       0       0       0       0       0       0
Total ram usage:       17 bytes
 Hardware stack levels used:    1
 Hardware stack levels required when called:   10
 This function calls:
		_ETH_ReadBlock
		_TCP_Snd
 This function is called by:
		_TCP_FiniteStateMachine
 This function uses a non-reentrant model


 *************** function _TCP_Snd *****************
 Defined at:
		line 200 in file "../../TCPIP Library/source/tcpv4.c"
 Parameters:    Size  Location     Type
  tcbPtr          2   87[COMRAM] PTR struct .
		 -> ?_sprintf(2), ?_printf(2), main@str(32), STR_5(13), 
		 -> STR_4(17), Network_Read@debug_str(80), NULL(0), 
 Auto vars:     Size  Location     Type
  txHeader       20   64[BANK0 ] struct .
  tcpDataLengt    2   62[BANK0 ] unsigned int 
  payloadLengt    2   59[BANK0 ] unsigned int 
  cksm            2   57[BANK0 ] unsigned int 
  data            2   55[BANK0 ] PTR unsigned char 
		 -> ?_sprintf(2), ?_printf(2), main@str(32), STR_5(13), 
		 -> STR_4(17), Network_Read@debug_str(80), NULL(0), 
  ret             1   61[BANK0 ] unsigned char 
 Return value:  Size  Location     Type
                  1    wreg      unsigned char 
 Registers used:
		wreg, fsr0l, fsr0h, fsr2l, fsr2h, status,2, status,0, tblptrl, tblptrh, tblptru, cstack
 Tracked objects:
		On entry : 
		On exit  : 
		Unchanged: 
 Data sizes:     COMRAM   BANK0   BANK1   BANK2   BANK3   BANK4   BANK5   BANK6   BANK7   BANK8   BANK9  BANK10  BANK11  BANK12  BANK13  BANK14  BANK15
      Params:         2       0       0       0       0       0       0       0       0       0       0       0       0       0       0       0       0
      Locals:         0      29       0       0       0       0       0       0       0       0       0       0       0       0       0       0       0
      Temps:          0      48       0       0       0       0       0       0       0       0       0       0       0       0       0       0       0
      Totals:         2      77       0       0       0       0       0       0       0       0       0       0       0       0       0       0       0
Total ram usage:       79 bytes
 Hardware stack levels used:    1
 Hardware stack levels required when called:    9
 This function calls:
		_ETH_Insert
		_ETH_TxComputeChecksum
		_ETH_WriteBlock
		_IPV4_Send
		_IPv4_Start
 This function is called by:
		_TCP_PayloadSave
		_TCP_FiniteStateMachine
 This function uses a non-reentrant model


 *************** function _TCB_Reset *****************
 Defined at:
		line 134 in file "../../TCPIP Library/source/tcpv4.c"
 Parameters:    Size  Location     Type
  tcbPtr          2    1[COMRAM] PTR struct .
		 -> ?_sprintf(2), ?_printf(2), main@str(32), STR_5(13), 
		 -> STR_4(17), Network_Read@debug_str(80), NULL(0), 
 Auto vars:     Size  Location     Type
		None
 Return value:  Size  Location     Type
		None               void
 Registers used:
		wreg, fsr0l, fsr0h, status,2, status,0, tblptrl, tblptrh, tblptru
 Tracked objects:
		On entry : 
		On exit  : 
		Unchanged: 
 Data sizes:     COMRAM   BANK0   BANK1   BANK2   BANK3   BANK4   BANK5   BANK6   BANK7   BANK8   BANK9  BANK10  BANK11  BANK12  BANK13  BANK14  BANK15
      Params:         2       0       0       0       0       0       0       0       0       0       0       0       0       0       0       0       0
      Locals:         0       0       0       0       0       0       0       0       0       0       0       0       0       0       0       0       0
      Temps:          2       0       0       0       0       0       0       0       0       0       0       0       0       0       0       0       0
      Totals:         4       0       0       0       0       0       0       0       0       0       0       0       0       0       0       0       0
Total ram usage:        4 bytes
 Hardware stack levels used:    1
 Hardware stack levels required when called:    3
 This function calls:
		Nothing
 This function is called by:
		_TCP_FiniteStateMachine
 This function uses a non-reentrant model


 *************** function _IPV4_PseudoHeaderChecksum *****************
 Defined at:
		line 83 in file "../../TCPIP Library/source/ipv4.c"
 Parameters:    Size  Location     Type
  payloadLen      2    1[COMRAM] unsigned int 
 Auto vars:     Size  Location     Type
  tmp            12   13[COMRAM] struct .
  cksm            4    9[COMRAM] unsigned long 
  len             1    8[COMRAM] unsigned char 
  v               1    7[COMRAM] PTR unsigned int 
		 -> IPV4_PseudoHeaderChecksum@tmp(12), 
 Return value:  Size  Location     Type
                  2    1[COMRAM] unsigned int 
 Registers used:
		wreg, fsr2l, fsr2h, status,2, status,0
 Tracked objects:
		On entry : 
		On exit  : 
		Unchanged: 
 Data sizes:     COMRAM   BANK0   BANK1   BANK2   BANK3   BANK4   BANK5   BANK6   BANK7   BANK8   BANK9  BANK10  BANK11  BANK12  BANK13  BANK14  BANK15
      Params:         2       0       0       0       0       0       0       0       0       0       0       0       0       0       0       0       0
      Locals:        18       0       0       0       0       0       0       0       0       0       0       0       0       0       0       0       0
      Temps:          4       0       0       0       0       0       0       0       0       0       0       0       0       0       0       0       0
      Totals:        24       0       0       0       0       0       0       0       0       0       0       0       0       0       0       0       0
Total ram usage:       24 bytes
 Hardware stack levels used:    1
 Hardware stack levels required when called:    3
 This function calls:
		Nothing
 This function is called by:
		_IPV4_Packet
 This function uses a non-reentrant model


 *************** function _ICMP_Receive *****************
 Defined at:
		line 56 in file "../../TCPIP Library/source/icmp.c"
 Parameters:    Size  Location     Type
  ipv4Hdr         2   89[COMRAM] PTR struct .
		 -> ipv4Header(20), 
 Auto vars:     Size  Location     Type
  icmpHdr         8   26[BANK0 ] struct .
  ret             1    0        enum E366
 Return value:  Size  Location     Type
                  1    wreg      enum E366
 Registers used:
		wreg, fsr0l, fsr0h, fsr2l, fsr2h, status,2, status,0, tblptrl, tblptrh, tblptru, cstack
 Tracked objects:
		On entry : 
		On exit  : 
		Unchanged: 
 Data sizes:     COMRAM   BANK0   BANK1   BANK2   BANK3   BANK4   BANK5   BANK6   BANK7   BANK8   BANK9  BANK10  BANK11  BANK12  BANK13  BANK14  BANK15
      Params:         2       0       0       0       0       0       0       0       0       0       0       0       0       0       0       0       0
      Locals:         0       9       0       0       0       0       0       0       0       0       0       0       0       0       0       0       0
      Temps:          0       4       0       0       0       0       0       0       0       0       0       0       0       0       0       0       0
      Totals:         2      13       0       0       0       0       0       0       0       0       0       0       0       0       0       0       0
Total ram usage:       15 bytes
 Hardware stack levels used:    1
 Hardware stack levels required when called:   10
 This function calls:
		_ETH_ReadBlock
		_ETH_SaveRDPT
		_ICMP_EchoReply
 This function is called by:
		_IPV4_Packet
 This function uses a non-reentrant model


 *************** function _ICMP_EchoReply *****************
 Defined at:
		line 86 in file "../../TCPIP Library/source/icmp.c"
 Parameters:    Size  Location     Type
  icmpHdr         1    wreg     PTR struct .
		 -> ICMP_Receive@icmpHdr(8), 
  ipv4Hdr         2   87[COMRAM] PTR struct .
		 -> ipv4Header(20), 
 Auto vars:     Size  Location     Type
  icmpHdr         1   20[BANK0 ] PTR struct .
		 -> ICMP_Receive@icmpHdr(8), 
  ipv4PayloadL    2   17[BANK0 ] unsigned int 
  icmp_cksm_st    2    0        unsigned int 
  cksm            2   15[BANK0 ] unsigned int 
  ret             1   19[BANK0 ] enum E366
 Return value:  Size  Location     Type
                  1    wreg      enum E366
 Registers used:
		wreg, fsr0l, fsr0h, fsr2l, fsr2h, status,2, status,0, tblptrl, tblptrh, tblptru, cstack
 Tracked objects:
		On entry : 
		On exit  : 
		Unchanged: 
 Data sizes:     COMRAM   BANK0   BANK1   BANK2   BANK3   BANK4   BANK5   BANK6   BANK7   BANK8   BANK9  BANK10  BANK11  BANK12  BANK13  BANK14  BANK15
      Params:         2       0       0       0       0       0       0       0       0       0       0       0       0       0       0       0       0
      Locals:         0       8       0       0       0       0       0       0       0       0       0       0       0       0       0       0       0
      Temps:          0       6       0       0       0       0       0       0       0       0       0       0       0       0       0       0       0
      Totals:         2      14       0       0       0       0       0       0       0       0       0       0       0       0       0       0       0
Total ram usage:       16 bytes
 Hardware stack levels used:    1
 Hardware stack levels required when called:    9
 This function calls:
		_ETH_Copy
		_ETH_Insert
		_ETH_SaveRDPT
		_ETH_TxComputeChecksum
		_ETH_Write16
		_IPV4_Send
		_IPv4_Start
 This function is called by:
		_ICMP_Receive
 This function uses a non-reentrant model


 *************** function _ETH_SaveRDPT *****************
 Defined at:
		line 592 in file "../../TCPIP Library/ethernet_drivers/encX24J600_driver.c"
 Parameters:    Size  Location     Type
		None
 Auto vars:     Size  Location     Type
		None
 Return value:  Size  Location     Type
		None               void
 Registers used:
		wreg, status,2, status,0, cstack
 Tracked objects:
		On entry : 
		On exit  : 
		Unchanged: 
 Data sizes:     COMRAM   BANK0   BANK1   BANK2   BANK3   BANK4   BANK5   BANK6   BANK7   BANK8   BANK9  BANK10  BANK11  BANK12  BANK13  BANK14  BANK15
      Params:         0       0       0       0       0       0       0       0       0       0       0       0       0       0       0       0       0
      Locals:         0       0       0       0       0       0       0       0       0       0       0       0       0       0       0       0       0
      Temps:          0       0       0       0       0       0       0       0       0       0       0       0       0       0       0       0       0
      Totals:         0       0       0       0       0       0       0       0       0       0       0       0       0       0       0       0       0
Total ram usage:        0 bytes
 Hardware stack levels used:    1
 Hardware stack levels required when called:    6
 This function calls:
		_ENCx24_Read
 This function is called by:
		_ICMP_Receive
		_ICMP_EchoReply
 This function uses a non-reentrant model


 *************** function _ETH_Copy *****************
 Defined at:
		line 416 in file "../../TCPIP Library/ethernet_drivers/encX24J600_driver.c"
 Parameters:    Size  Location     Type
  len             2   12[COMRAM] unsigned int 
 Auto vars:     Size  Location     Type
  txBufferAddr    2   14[COMRAM] unsigned int 
 Return value:  Size  Location     Type
                  1    wreg      enum E6988
 Registers used:
		wreg, status,2, status,0, cstack
 Tracked objects:
		On entry : 
		On exit  : 
		Unchanged: 
 Data sizes:     COMRAM   BANK0   BANK1   BANK2   BANK3   BANK4   BANK5   BANK6   BANK7   BANK8   BANK9  BANK10  BANK11  BANK12  BANK13  BANK14  BANK15
      Params:         2       0       0       0       0       0       0       0       0       0       0       0       0       0       0       0       0
      Locals:         2       0       0       0       0       0       0       0       0       0       0       0       0       0       0       0       0
      Temps:          0       0       0       0       0       0       0       0       0       0       0       0       0       0       0       0       0
      Totals:         4       0       0       0       0       0       0       0       0       0       0       0       0       0       0       0       0
Total ram usage:        4 bytes
 Hardware stack levels used:    1
 Hardware stack levels required when called:    7
 This function calls:
		_ENCx24_BFC
		_ENCx24_BFS
		_ENCx24_Read
		_ENCx24_Write
		_waitForDMA
 This function is called by:
		_ICMP_EchoReply
 This function uses a non-reentrant model


 *************** function _ETH_RxComputeChecksum *****************
 Defined at:
		line 545 in file "../../TCPIP Library/ethernet_drivers/encX24J600_driver.c"
 Parameters:    Size  Location     Type
  len             2   12[COMRAM] unsigned int 
  seed            2   14[COMRAM] unsigned int 
 Auto vars:     Size  Location     Type
  econ1Val        2   24[COMRAM] unsigned int 
  rxPtr           2   22[COMRAM] unsigned int 
  cksm            2   20[COMRAM] unsigned int 
 Return value:  Size  Location     Type
                  2   12[COMRAM] unsigned int 
 Registers used:
		wreg, status,2, status,0, cstack
 Tracked objects:
		On entry : 
		On exit  : 
		Unchanged: 
 Data sizes:     COMRAM   BANK0   BANK1   BANK2   BANK3   BANK4   BANK5   BANK6   BANK7   BANK8   BANK9  BANK10  BANK11  BANK12  BANK13  BANK14  BANK15
      Params:         4       0       0       0       0       0       0       0       0       0       0       0       0       0       0       0       0
      Locals:         6       0       0       0       0       0       0       0       0       0       0       0       0       0       0       0       0
      Temps:          4       0       0       0       0       0       0       0       0       0       0       0       0       0       0       0       0
      Totals:        14       0       0       0       0       0       0       0       0       0       0       0       0       0       0       0       0
Total ram usage:       14 bytes
 Hardware stack levels used:    1
 Hardware stack levels required when called:    7
 This function calls:
		_ENCx24_BFC
		_ENCx24_BFS
		_ENCx24_Read
		_ENCx24_Write
		_waitForDMA
 This function is called by:
		_IPV4_Packet
 This function uses a non-reentrant model


 *************** function _ETH_NextPacketUpdate *****************
 Defined at:
		line 278 in file "../../TCPIP Library/ethernet_drivers/encX24J600_driver.c"
 Parameters:    Size  Location     Type
		None
 Auto vars:     Size  Location     Type
		None
 Return value:  Size  Location     Type
		None               void
 Registers used:
		wreg, status,2, status,0, cstack
 Tracked objects:
		On entry : 
		On exit  : 
		Unchanged: 
 Data sizes:     COMRAM   BANK0   BANK1   BANK2   BANK3   BANK4   BANK5   BANK6   BANK7   BANK8   BANK9  BANK10  BANK11  BANK12  BANK13  BANK14  BANK15
      Params:         0       0       0       0       0       0       0       0       0       0       0       0       0       0       0       0       0
      Locals:         0       0       0       0       0       0       0       0       0       0       0       0       0       0       0       0       0
      Temps:          0       0       0       0       0       0       0       0       0       0       0       0       0       0       0       0       0
      Totals:         0       0       0       0       0       0       0       0       0       0       0       0       0       0       0       0       0
Total ram usage:        0 bytes
 Hardware stack levels used:    1
 Hardware stack levels required when called:    5
 This function calls:
		_ETH_SetRXptr
		_SPI_ExchangeByte
 This function is called by:
		_Network_Read
 This function uses a non-reentrant model


 *************** function _ETH_SetRXptr *****************
 Defined at:
		line 456 in file "../../TCPIP Library/ethernet_drivers/encX24j600_spi.c"
 Parameters:    Size  Location     Type
  address         2    2[COMRAM] unsigned int 
 Auto vars:     Size  Location     Type
		None
 Return value:  Size  Location     Type
		None               void
 Registers used:
		wreg, status,2, cstack
 Tracked objects:
		On entry : 
		On exit  : 
		Unchanged: 
 Data sizes:     COMRAM   BANK0   BANK1   BANK2   BANK3   BANK4   BANK5   BANK6   BANK7   BANK8   BANK9  BANK10  BANK11  BANK12  BANK13  BANK14  BANK15
      Params:         2       0       0       0       0       0       0       0       0       0       0       0       0       0       0       0       0
      Locals:         0       0       0       0       0       0       0       0       0       0       0       0       0       0       0       0       0
      Temps:          0       0       0       0       0       0       0       0       0       0       0       0       0       0       0       0       0
      Totals:         2       0       0       0       0       0       0       0       0       0       0       0       0       0       0       0       0
Total ram usage:        2 bytes
 Hardware stack levels used:    1
 Hardware stack levels required when called:    4
 This function calls:
		_SPI_ExchangeByte
 This function is called by:
		_ETH_NextPacketUpdate
 This function uses a non-reentrant model


 *************** function _ETH_Flush *****************
 Defined at:
		line 341 in file "../../TCPIP Library/ethernet_drivers/encX24J600_driver.c"
 Parameters:    Size  Location     Type
		None
 Auto vars:     Size  Location     Type
  newRXTail       2    8[COMRAM] unsigned int 
 Return value:  Size  Location     Type
		None               void
 Registers used:
		wreg, status,2, status,0, cstack
 Tracked objects:
		On entry : 
		On exit  : 
		Unchanged: 
 Data sizes:     COMRAM   BANK0   BANK1   BANK2   BANK3   BANK4   BANK5   BANK6   BANK7   BANK8   BANK9  BANK10  BANK11  BANK12  BANK13  BANK14  BANK15
      Params:         0       0       0       0       0       0       0       0       0       0       0       0       0       0       0       0       0
      Locals:         2       0       0       0       0       0       0       0       0       0       0       0       0       0       0       0       0
      Temps:          0       0       0       0       0       0       0       0       0       0       0       0       0       0       0       0       0
      Totals:         2       0       0       0       0       0       0       0       0       0       0       0       0       0       0       0       0
Total ram usage:        2 bytes
 Hardware stack levels used:    1
 Hardware stack levels required when called:    6
 This function calls:
		_ENCx24_Write
		_ETH_SetPktDec
 This function is called by:
		_Network_Read
 This function uses a non-reentrant model


 *************** function _ETH_SetPktDec *****************
 Defined at:
		line 445 in file "../../TCPIP Library/ethernet_drivers/encX24j600_spi.c"
 Parameters:    Size  Location     Type
		None
 Auto vars:     Size  Location     Type
		None
 Return value:  Size  Location     Type
		None               void
 Registers used:
		wreg, status,2, cstack
 Tracked objects:
		On entry : 
		On exit  : 
		Unchanged: 
 Data sizes:     COMRAM   BANK0   BANK1   BANK2   BANK3   BANK4   BANK5   BANK6   BANK7   BANK8   BANK9  BANK10  BANK11  BANK12  BANK13  BANK14  BANK15
      Params:         0       0       0       0       0       0       0       0       0       0       0       0       0       0       0       0       0
      Locals:         0       0       0       0       0       0       0       0       0       0       0       0       0       0       0       0       0
      Temps:          0       0       0       0       0       0       0       0       0       0       0       0       0       0       0       0       0
      Totals:         0       0       0       0       0       0       0       0       0       0       0       0       0       0       0       0       0
Total ram usage:        0 bytes
 Hardware stack levels used:    1
 Hardware stack levels required when called:    4
 This function calls:
		_SPI_ExchangeByte
 This function is called by:
		_ETH_Flush
 This function uses a non-reentrant model


 *************** function _ARPV4_Packet *****************
 Defined at:
		line 97 in file "../../TCPIP Library/source/arpv4.c"
 Parameters:    Size  Location     Type
		None
 Auto vars:     Size  Location     Type
  x               1   53[COMRAM] unsigned char 
  arpPtr          2   50[COMRAM] PTR struct .
		 -> arpMap(104), 
  x               1   52[COMRAM] unsigned char 
  header         28   56[COMRAM] struct .
  entryPointer    2   54[COMRAM] PTR struct .
		 -> arpMap(104), 
  length          2   46[COMRAM] unsigned int 
  ret             1   49[COMRAM] enum E450
  mergeFlag       1   48[COMRAM] unsigned char 
 Return value:  Size  Location     Type
                  1    wreg      enum E450
 Registers used:
		wreg, fsr0l, fsr0h, fsr1l, fsr1h, fsr2l, fsr2h, status,2, status,0, tblptrl, tblptrh, tblptru, cstack
 Tracked objects:
		On entry : 
		On exit  : 
		Unchanged: 
 Data sizes:     COMRAM   BANK0   BANK1   BANK2   BANK3   BANK4   BANK5   BANK6   BANK7   BANK8   BANK9  BANK10  BANK11  BANK12  BANK13  BANK14  BANK15
      Params:         0       0       0       0       0       0       0       0       0       0       0       0       0       0       0       0       0
      Locals:        38       0       0       0       0       0       0       0       0       0       0       0       0       0       0       0       0
      Temps:         32       0       0       0       0       0       0       0       0       0       0       0       0       0       0       0       0
      Totals:        70       0       0       0       0       0       0       0       0       0       0       0       0       0       0       0       0
Total ram usage:       70 bytes
 Hardware stack levels used:    1
 Hardware stack levels required when called:    7
 This function calls:
		_ETH_GetMAC
		_ETH_ReadBlock
		_ETH_Send
		_ETH_WriteBlock
		_ETH_WriteStart
 This function is called by:
		_Network_Read
 This function uses a non-reentrant model


 *************** function _ETH_ReadBlock *****************
 Defined at:
		line 305 in file "../../TCPIP Library/ethernet_drivers/encX24j600_spi.c"
 Parameters:    Size  Location     Type
  data            2    2[COMRAM] PTR void 
		 -> ?_sprintf(2), ?_printf(2), DEMO_UDP_Recv@str2(16), DEMO_UDP_Recv@str1(16), 
		 -> DEMO_UDP_Recv@str(32), data(2), idle_packet(2), main@str(32), 
		 -> STR_5(13), STR_4(17), udpHeader(8), tcpHeader(20), 
		 -> Network_Read@debug_str(80), Network_Read@header(14), ipv4Header(20), ICMP_Receive@icmpHdr(8), 
		 -> DHCP_Handler@ethPktMAC(6), ARPV4_Packet@header(28), NULL(0), 
  length          2    4[COMRAM] unsigned int 
 Auto vars:     Size  Location     Type
  len             2    9[COMRAM] unsigned int 
  p               2    7[COMRAM] PTR unsigned char 
		 -> ?_sprintf(2), ?_printf(2), DEMO_UDP_Recv@str2(16), DEMO_UDP_Recv@str1(16), 
		 -> DEMO_UDP_Recv@str(32), data(2), idle_packet(2), main@str(32), 
		 -> STR_5(13), STR_4(17), udpHeader(8), tcpHeader(20), 
		 -> Network_Read@debug_str(80), Network_Read@header(14), ipv4Header(20), ICMP_Receive@icmpHdr(8), 
		 -> DHCP_Handler@ethPktMAC(6), ARPV4_Packet@header(28), NULL(0), 
 Return value:  Size  Location     Type
                  2    2[COMRAM] unsigned int 
 Registers used:
		wreg, fsr0l, fsr0h, status,2, status,0, tblptrl, tblptrh, tblptru, cstack
 Tracked objects:
		On entry : 
		On exit  : 
		Unchanged: 
 Data sizes:     COMRAM   BANK0   BANK1   BANK2   BANK3   BANK4   BANK5   BANK6   BANK7   BANK8   BANK9  BANK10  BANK11  BANK12  BANK13  BANK14  BANK15
      Params:         4       0       0       0       0       0       0       0       0       0       0       0       0       0       0       0       0
      Locals:         4       0       0       0       0       0       0       0       0       0       0       0       0       0       0       0       0
      Temps:          1       0       0       0       0       0       0       0       0       0       0       0       0       0       0       0       0
      Totals:         9       0       0       0       0       0       0       0       0       0       0       0       0       0       0       0       0
Total ram usage:        9 bytes
 Hardware stack levels used:    1
 Hardware stack levels required when called:    4
 This function calls:
		_SPI_ExchangeByte
 This function is called by:
		_ARPV4_Packet
		_DHCP_Handler
		_ICMP_Receive
		_IPV4_Packet
		_Network_Read
		_TCP_PayloadSave
		_TCP_Recv
		_UDP_Receive
		_UDP_ReadBlock
 This function uses a non-reentrant model


 *************** function _ETH_EventHandler *****************
 Defined at:
		line 215 in file "../../TCPIP Library/ethernet_drivers/encX24J600_driver.c"
 Parameters:    Size  Location     Type
		None
 Auto vars:     Size  Location     Type
  eirVal          2   16[COMRAM] unsigned int 
  estatVal        2   14[COMRAM] unsigned int 
  macon2Val       2   12[COMRAM] unsigned int 
  mabbipgVal      2   10[COMRAM] unsigned int 
 Return value:  Size  Location     Type
		None               void
 Registers used:
		wreg, status,2, status,0, cstack
 Tracked objects:
		On entry : 
		On exit  : 
		Unchanged: 
 Data sizes:     COMRAM   BANK0   BANK1   BANK2   BANK3   BANK4   BANK5   BANK6   BANK7   BANK8   BANK9  BANK10  BANK11  BANK12  BANK13  BANK14  BANK15
      Params:         0       0       0       0       0       0       0       0       0       0       0       0       0       0       0       0       0
      Locals:         8       0       0       0       0       0       0       0       0       0       0       0       0       0       0       0       0
      Temps:          0       0       0       0       0       0       0       0       0       0       0       0       0       0       0       0       0
      Totals:         8       0       0       0       0       0       0       0       0       0       0       0       0       0       0       0       0
Total ram usage:        8 bytes
 Hardware stack levels used:    1
 Hardware stack levels required when called:    7
 This function calls:
		_ENCx24_BFC
		_ENCx24_Read
		_ENCx24_Write
		_ETH_ResetReceiver
 This function is called by:
		_Network_Manage
 This function uses a non-reentrant model


 *************** function _ETH_ResetReceiver *****************
 Defined at:
		line 302 in file "../../TCPIP Library/ethernet_drivers/encX24J600_driver.c"
 Parameters:    Size  Location     Type
		None
 Auto vars:     Size  Location     Type
		None
 Return value:  Size  Location     Type
		None               void
 Registers used:
		wreg, status,2, status,0, cstack
 Tracked objects:
		On entry : 
		On exit  : 
		Unchanged: 
 Data sizes:     COMRAM   BANK0   BANK1   BANK2   BANK3   BANK4   BANK5   BANK6   BANK7   BANK8   BANK9  BANK10  BANK11  BANK12  BANK13  BANK14  BANK15
      Params:         0       0       0       0       0       0       0       0       0       0       0       0       0       0       0       0       0
      Locals:         0       0       0       0       0       0       0       0       0       0       0       0       0       0       0       0       0
      Temps:          0       0       0       0       0       0       0       0       0       0       0       0       0       0       0       0       0
      Totals:         0       0       0       0       0       0       0       0       0       0       0       0       0       0       0       0       0
Total ram usage:        0 bytes
 Hardware stack levels used:    1
 Hardware stack levels required when called:    6
 This function calls:
		_ENCx24_BFC
		_ENCx24_BFS
		_ENCx24_Write
 This function is called by:
		_ETH_EventHandler
 This function uses a non-reentrant model


 *************** function _DHCP_Manage *****************
 Defined at:
		line 130 in file "../../TCPIP Library/source/dhcp_client.c"
 Parameters:    Size  Location     Type
		None
 Auto vars:     Size  Location     Type
		None
 Return value:  Size  Location     Type
		None               void
 Registers used:
		wreg, fsr0l, fsr0h, fsr2l, fsr2h, status,2, status,0, tblptrl, tblptrh, tblptru, cstack
 Tracked objects:
		On entry : 
		On exit  : 
		Unchanged: 
 Data sizes:     COMRAM   BANK0   BANK1   BANK2   BANK3   BANK4   BANK5   BANK6   BANK7   BANK8   BANK9  BANK10  BANK11  BANK12  BANK13  BANK14  BANK15
      Params:         0       0       0       0       0       0       0       0       0       0       0       0       0       0       0       0       0
      Locals:         0       0       0       0       0       0       0       0       0       0       0       0       0       0       0       0       0
      Temps:          0       0       0       0       0       0       0       0       0       0       0       0       0       0       0       0       0
      Totals:         0       0       0       0       0       0       0       0       0       0       0       0       0       0       0       0       0
Total ram usage:        0 bytes
 Hardware stack levels used:    1
 Hardware stack levels required when called:   11
 This function calls:
		_DHCP_Request
 This function is called by:
		_Network_Manage
 This function uses a non-reentrant model


 *************** function _DHCP_Request *****************
 Defined at:
		line 71 in file "../../TCPIP Library/source/dhcp_client.c"
 Parameters:    Size  Location     Type
  type            1    wreg     enum E592
 Auto vars:     Size  Location     Type
  type            1   16[BANK0 ] enum E592
  ethMAC          6   17[BANK0 ] struct .
  msglength       2    0        unsigned int 
  started         1   15[BANK0 ] unsigned char 
 Return value:  Size  Location     Type
		None               void
 Registers used:
		wreg, fsr0l, fsr0h, fsr2l, fsr2h, status,2, status,0, tblptrl, tblptrh, tblptru, cstack
 Tracked objects:
		On entry : 
		On exit  : 
		Unchanged: 
 Data sizes:     COMRAM   BANK0   BANK1   BANK2   BANK3   BANK4   BANK5   BANK6   BANK7   BANK8   BANK9  BANK10  BANK11  BANK12  BANK13  BANK14  BANK15
      Params:         0       0       0       0       0       0       0       0       0       0       0       0       0       0       0       0       0
      Locals:         0       8       0       0       0       0       0       0       0       0       0       0       0       0       0       0       0
      Temps:          0       0       0       0       0       0       0       0       0       0       0       0       0       0       0       0       0
      Totals:         0       8       0       0       0       0       0       0       0       0       0       0       0       0       0       0       0
Total ram usage:        8 bytes
 Hardware stack levels used:    1
 Hardware stack levels required when called:   10
 This function calls:
		_DHCP_WriteZeros
		_ETH_GetMAC
		_ETH_Write16
		_ETH_Write32
		_ETH_Write8
		_ETH_WriteBlock
		_UDP_Send
		_UDP_Start
 This function is called by:
		_DHCP_Manage
		_DHCP_Handler
 This function uses a non-reentrant model


 *************** function _DHCP_WriteZeros *****************
 Defined at:
		line 277 in file "../../TCPIP Library/source/dhcp_client.c"
 Parameters:    Size  Location     Type
  length          2    3[COMRAM] unsigned int 
 Auto vars:     Size  Location     Type
		None
 Return value:  Size  Location     Type
		None               void
 Registers used:
		wreg, status,2, status,0, cstack
 Tracked objects:
		On entry : 
		On exit  : 
		Unchanged: 
 Data sizes:     COMRAM   BANK0   BANK1   BANK2   BANK3   BANK4   BANK5   BANK6   BANK7   BANK8   BANK9  BANK10  BANK11  BANK12  BANK13  BANK14  BANK15
      Params:         2       0       0       0       0       0       0       0       0       0       0       0       0       0       0       0       0
      Locals:         0       0       0       0       0       0       0       0       0       0       0       0       0       0       0       0       0
      Temps:          0       0       0       0       0       0       0       0       0       0       0       0       0       0       0       0       0
      Totals:         2       0       0       0       0       0       0       0       0       0       0       0       0       0       0       0       0
Total ram usage:        2 bytes
 Hardware stack levels used:    1
 Hardware stack levels required when called:    5
 This function calls:
		_ETH_Write8
 This function is called by:
		_DHCP_Request
 This function uses a non-reentrant model


 *************** function _ARPV4_Update *****************
 Defined at:
		line 179 in file "../../TCPIP Library/source/arpv4.c"
 Parameters:    Size  Location     Type
		None
 Auto vars:     Size  Location     Type
  x               1    3[COMRAM] unsigned char 
  entryPointer    2    1[COMRAM] PTR struct .
		 -> arpMap(104), 
 Return value:  Size  Location     Type
		None               void
 Registers used:
		wreg, fsr2l, fsr2h, status,2, status,0
 Tracked objects:
		On entry : 
		On exit  : 
		Unchanged: 
 Data sizes:     COMRAM   BANK0   BANK1   BANK2   BANK3   BANK4   BANK5   BANK6   BANK7   BANK8   BANK9  BANK10  BANK11  BANK12  BANK13  BANK14  BANK15
      Params:         0       0       0       0       0       0       0       0       0       0       0       0       0       0       0       0       0
      Locals:         3       0       0       0       0       0       0       0       0       0       0       0       0       0       0       0       0
      Temps:          0       0       0       0       0       0       0       0       0       0       0       0       0       0       0       0       0
      Totals:         3       0       0       0       0       0       0       0       0       0       0       0       0       0       0       0       0
Total ram usage:        3 bytes
 Hardware stack levels used:    1
 Hardware stack levels required when called:    3
 This function calls:
		Nothing
 This function is called by:
		_Network_Manage
 This function uses a non-reentrant model


 *************** function _Network_Init *****************
 Defined at:
		line 65 in file "../../TCPIP Library/source/network.c"
 Parameters:    Size  Location     Type
		None
 Auto vars:     Size  Location     Type
		None
 Return value:  Size  Location     Type
		None               void
 Registers used:
		wreg, fsr2l, fsr2h, status,2, status,0, cstack
 Tracked objects:
		On entry : 
		On exit  : 
		Unchanged: 
 Data sizes:     COMRAM   BANK0   BANK1   BANK2   BANK3   BANK4   BANK5   BANK6   BANK7   BANK8   BANK9  BANK10  BANK11  BANK12  BANK13  BANK14  BANK15
      Params:         0       0       0       0       0       0       0       0       0       0       0       0       0       0       0       0       0
      Locals:         0       0       0       0       0       0       0       0       0       0       0       0       0       0       0       0       0
      Temps:          0       0       0       0       0       0       0       0       0       0       0       0       0       0       0       0       0
      Totals:         0       0       0       0       0       0       0       0       0       0       0       0       0       0       0       0       0
Total ram usage:        0 bytes
 Hardware stack levels used:    1
 Hardware stack levels required when called:    9
 This function calls:
		_ARPV4_Init
		_ETH_Init
		_IPV4_Init
		_TCP_Init
		_time
 This function is called by:
		_main
 This function uses a non-reentrant model


 *************** function _time *****************
 Defined at:
		line 198 in file "../board_support_package/picdem2_net/rtcc.c"
 Parameters:    Size  Location     Type
  t               2    1[COMRAM] PTR long 
		 -> main@t(4), main@now_p(4), main@ip_timer(4), Network_Manage@now(4), 
		 -> arpTimer(4), NULL(0), 
 Auto vars:     Size  Location     Type
  the_time        4    6[COMRAM] long 
  gie_val         1    5[COMRAM] unsigned char 
 Return value:  Size  Location     Type
                  4    1[COMRAM] long 
 Registers used:
		wreg, fsr2l, fsr2h, status,2, status,0
 Tracked objects:
		On entry : 
		On exit  : 
		Unchanged: 
 Data sizes:     COMRAM   BANK0   BANK1   BANK2   BANK3   BANK4   BANK5   BANK6   BANK7   BANK8   BANK9  BANK10  BANK11  BANK12  BANK13  BANK14  BANK15
      Params:         4       0       0       0       0       0       0       0       0       0       0       0       0       0       0       0       0
      Locals:         5       0       0       0       0       0       0       0       0       0       0       0       0       0       0       0       0
      Temps:          0       0       0       0       0       0       0       0       0       0       0       0       0       0       0       0       0
      Totals:         9       0       0       0       0       0       0       0       0       0       0       0       0       0       0       0       0
Total ram usage:        9 bytes
 Hardware stack levels used:    1
 Hardware stack levels required when called:    3
 This function calls:
		Nothing
 This function is called by:
		_Network_Init
		_Network_Manage
		_SYSLOG_Init
		_SYSLOG_Write
		_main
 This function uses a non-reentrant model


 *************** function _TCP_Init *****************
 Defined at:
		line 1173 in file "../../TCPIP Library/source/tcpv4.c"
 Parameters:    Size  Location     Type
		None
 Auto vars:     Size  Location     Type
		None
 Return value:  Size  Location     Type
		None               void
 Registers used:
		wreg, status,2
 Tracked objects:
		On entry : 
		On exit  : 
		Unchanged: 
 Data sizes:     COMRAM   BANK0   BANK1   BANK2   BANK3   BANK4   BANK5   BANK6   BANK7   BANK8   BANK9  BANK10  BANK11  BANK12  BANK13  BANK14  BANK15
      Params:         0       0       0       0       0       0       0       0       0       0       0       0       0       0       0       0       0
      Locals:         0       0       0       0       0       0       0       0       0       0       0       0       0       0       0       0       0
      Temps:          0       0       0       0       0       0       0       0       0       0       0       0       0       0       0       0       0
      Totals:         0       0       0       0       0       0       0       0       0       0       0       0       0       0       0       0       0
Total ram usage:        0 bytes
 Hardware stack levels used:    1
 Hardware stack levels required when called:    3
 This function calls:
		Nothing
 This function is called by:
		_Network_Init
 This function uses a non-reentrant model


 *************** function _IPV4_Init *****************
 Defined at:
		line 78 in file "../../TCPIP Library/source/ipv4.c"
 Parameters:    Size  Location     Type
		None
 Auto vars:     Size  Location     Type
		None
 Return value:  Size  Location     Type
		None               void
 Registers used:
		None
 Tracked objects:
		On entry : 
		On exit  : 
		Unchanged: 
 Data sizes:     COMRAM   BANK0   BANK1   BANK2   BANK3   BANK4   BANK5   BANK6   BANK7   BANK8   BANK9  BANK10  BANK11  BANK12  BANK13  BANK14  BANK15
      Params:         0       0       0       0       0       0       0       0       0       0       0       0       0       0       0       0       0
      Locals:         0       0       0       0       0       0       0       0       0       0       0       0       0       0       0       0       0
      Temps:          0       0       0       0       0       0       0       0       0       0       0       0       0       0       0       0       0
      Totals:         0       0       0       0       0       0       0       0       0       0       0       0       0       0       0       0       0
Total ram usage:        0 bytes
 Hardware stack levels used:    1
 Hardware stack levels required when called:    3
 This function calls:
		Nothing
 This function is called by:
		_Network_Init
 This function uses a non-reentrant model


 *************** function _ETH_Init *****************
 Defined at:
		line 94 in file "../../TCPIP Library/ethernet_drivers/encX24J600_driver.c"
 Parameters:    Size  Location     Type
		None
 Auto vars:     Size  Location     Type
  phcon1_val      2   21[COMRAM] unsigned int 
 Return value:  Size  Location     Type
		None               void
 Registers used:
		wreg, fsr2l, fsr2h, status,2, status,0, cstack
 Tracked objects:
		On entry : 
		On exit  : 
		Unchanged: 
 Data sizes:     COMRAM   BANK0   BANK1   BANK2   BANK3   BANK4   BANK5   BANK6   BANK7   BANK8   BANK9  BANK10  BANK11  BANK12  BANK13  BANK14  BANK15
      Params:         0       0       0       0       0       0       0       0       0       0       0       0       0       0       0       0       0
      Locals:         2       0       0       0       0       0       0       0       0       0       0       0       0       0       0       0       0
      Temps:          2       0       0       0       0       0       0       0       0       0       0       0       0       0       0       0       0
      Totals:         4       0       0       0       0       0       0       0       0       0       0       0       0       0       0       0       0
Total ram usage:        4 bytes
 Hardware stack levels used:    1
 Hardware stack levels required when called:    8
 This function calls:
		_ENCx24_BFS
		_ENCx24_PHYWrite
		_ENCx24_PhyRead
		_ENCx24_Read
		_ENCx24_Write
		_ETH_CheckLinkUp
		_ETH_GetMAC
		_ETH_SendSystemReset
		_SPI_ExchangeByte
 This function is called by:
		_Network_Init
 This function uses a non-reentrant model


 *************** function _ETH_SendSystemReset *****************
 Defined at:
		line 67 in file "../../TCPIP Library/ethernet_drivers/encX24J600_driver.c"
 Parameters:    Size  Location     Type
		None
 Auto vars:     Size  Location     Type
		None
 Return value:  Size  Location     Type
		None               void
 Registers used:
		wreg, status,2, status,0, cstack
 Tracked objects:
		On entry : 
		On exit  : 
		Unchanged: 
 Data sizes:     COMRAM   BANK0   BANK1   BANK2   BANK3   BANK4   BANK5   BANK6   BANK7   BANK8   BANK9  BANK10  BANK11  BANK12  BANK13  BANK14  BANK15
      Params:         0       0       0       0       0       0       0       0       0       0       0       0       0       0       0       0       0
      Locals:         0       0       0       0       0       0       0       0       0       0       0       0       0       0       0       0       0
      Temps:          2       0       0       0       0       0       0       0       0       0       0       0       0       0       0       0       0
      Totals:         2       0       0       0       0       0       0       0       0       0       0       0       0       0       0       0       0
Total ram usage:        2 bytes
 Hardware stack levels used:    1
 Hardware stack levels required when called:    6
 This function calls:
		_ENCx24_BFS
		_ENCx24_Read
		_ENCx24_Write
 This function is called by:
		_ETH_Init
 This function uses a non-reentrant model


 *************** function _ETH_CheckLinkUp *****************
 Defined at:
		line 198 in file "../../TCPIP Library/ethernet_drivers/encX24J600_driver.c"
 Parameters:    Size  Location     Type
		None
 Auto vars:     Size  Location     Type
  value           4   14[COMRAM] unsigned long 
  ret             1   18[COMRAM] unsigned char 
 Return value:  Size  Location     Type
                  1    wreg      unsigned char 
 Registers used:
		wreg, status,2, status,0, cstack
 Tracked objects:
		On entry : 
		On exit  : 
		Unchanged: 
 Data sizes:     COMRAM   BANK0   BANK1   BANK2   BANK3   BANK4   BANK5   BANK6   BANK7   BANK8   BANK9  BANK10  BANK11  BANK12  BANK13  BANK14  BANK15
      Params:         0       0       0       0       0       0       0       0       0       0       0       0       0       0       0       0       0
      Locals:         5       0       0       0       0       0       0       0       0       0       0       0       0       0       0       0       0
      Temps:          0       0       0       0       0       0       0       0       0       0       0       0       0       0       0       0       0
      Totals:         5       0       0       0       0       0       0       0       0       0       0       0       0       0       0       0       0
Total ram usage:        5 bytes
 Hardware stack levels used:    1
 Hardware stack levels required when called:    7
 This function calls:
		_ETH_readLinkStatus
 This function is called by:
		_ETH_Init
		_Network_WaitForLink
 This function uses a non-reentrant model


 *************** function _ETH_readLinkStatus *****************
 Defined at:
		line 193 in file "../../TCPIP Library/ethernet_drivers/encX24J600_driver.c"
 Parameters:    Size  Location     Type
		None
 Auto vars:     Size  Location     Type
		None
 Return value:  Size  Location     Type
                  4   10[COMRAM] unsigned long 
 Registers used:
		wreg, status,2, status,0, cstack
 Tracked objects:
		On entry : 
		On exit  : 
		Unchanged: 
 Data sizes:     COMRAM   BANK0   BANK1   BANK2   BANK3   BANK4   BANK5   BANK6   BANK7   BANK8   BANK9  BANK10  BANK11  BANK12  BANK13  BANK14  BANK15
      Params:         4       0       0       0       0       0       0       0       0       0       0       0       0       0       0       0       0
      Locals:         0       0       0       0       0       0       0       0       0       0       0       0       0       0       0       0       0
      Temps:          0       0       0       0       0       0       0       0       0       0       0       0       0       0       0       0       0
      Totals:         4       0       0       0       0       0       0       0       0       0       0       0       0       0       0       0       0
Total ram usage:        4 bytes
 Hardware stack levels used:    1
 Hardware stack levels required when called:    6
 This function calls:
		_ENCx24_Read
 This function is called by:
		_ETH_CheckLinkUp
 This function uses a non-reentrant model


 *************** function _ENCx24_PhyRead *****************
 Defined at:
		line 203 in file "../../TCPIP Library/ethernet_drivers/encX24j600_spi.c"
 Parameters:    Size  Location     Type
  a               1    wreg     enum E6676
 Auto vars:     Size  Location     Type
  a               1   12[COMRAM] enum E6676
 Return value:  Size  Location     Type
                  2   10[COMRAM] unsigned int 
 Registers used:
		wreg, status,2, status,0, cstack
 Tracked objects:
		On entry : 
		On exit  : 
		Unchanged: 
 Data sizes:     COMRAM   BANK0   BANK1   BANK2   BANK3   BANK4   BANK5   BANK6   BANK7   BANK8   BANK9  BANK10  BANK11  BANK12  BANK13  BANK14  BANK15
      Params:         2       0       0       0       0       0       0       0       0       0       0       0       0       0       0       0       0
      Locals:         1       0       0       0       0       0       0       0       0       0       0       0       0       0       0       0       0
      Temps:          0       0       0       0       0       0       0       0       0       0       0       0       0       0       0       0       0
      Totals:         3       0       0       0       0       0       0       0       0       0       0       0       0       0       0       0       0
Total ram usage:        3 bytes
 Hardware stack levels used:    1
 Hardware stack levels required when called:    6
 This function calls:
		_ENCx24_BFC
		_ENCx24_BFS
		_ENCx24_Read
		_ENCx24_Write
 This function is called by:
		_ETH_Init
 This function uses a non-reentrant model


 *************** function _ENCx24_PHYWrite *****************
 Defined at:
		line 217 in file "../../TCPIP Library/ethernet_drivers/encX24j600_spi.c"
 Parameters:    Size  Location     Type
  a               1    wreg     enum E6676
  data            2   10[COMRAM] unsigned int 
 Auto vars:     Size  Location     Type
  a               1   12[COMRAM] enum E6676
 Return value:  Size  Location     Type
		None               void
 Registers used:
		wreg, status,2, status,0, cstack
 Tracked objects:
		On entry : 
		On exit  : 
		Unchanged: 
 Data sizes:     COMRAM   BANK0   BANK1   BANK2   BANK3   BANK4   BANK5   BANK6   BANK7   BANK8   BANK9  BANK10  BANK11  BANK12  BANK13  BANK14  BANK15
      Params:         2       0       0       0       0       0       0       0       0       0       0       0       0       0       0       0       0
      Locals:         1       0       0       0       0       0       0       0       0       0       0       0       0       0       0       0       0
      Temps:          0       0       0       0       0       0       0       0       0       0       0       0       0       0       0       0       0
      Totals:         3       0       0       0       0       0       0       0       0       0       0       0       0       0       0       0       0
Total ram usage:        3 bytes
 Hardware stack levels used:    1
 Hardware stack levels required when called:    6
 This function calls:
		_ENCx24_Read
		_ENCx24_Write
 This function is called by:
		_ETH_Init
 This function uses a non-reentrant model


 *************** function _ARPV4_Init *****************
 Defined at:
		line 86 in file "../../TCPIP Library/source/arpv4.c"
 Parameters:    Size  Location     Type
		None
 Auto vars:     Size  Location     Type
  x               1    1[COMRAM] unsigned char 
 Return value:  Size  Location     Type
		None               void
 Registers used:
		wreg, fsr2l, fsr2h, status,2, status,0
 Tracked objects:
		On entry : 
		On exit  : 
		Unchanged: 
 Data sizes:     COMRAM   BANK0   BANK1   BANK2   BANK3   BANK4   BANK5   BANK6   BANK7   BANK8   BANK9  BANK10  BANK11  BANK12  BANK13  BANK14  BANK15
      Params:         0       0       0       0       0       0       0       0       0       0       0       0       0       0       0       0       0
      Locals:         1       0       0       0       0       0       0       0       0       0       0       0       0       0       0       0       0
      Temps:          0       0       0       0       0       0       0       0       0       0       0       0       0       0       0       0       0
      Totals:         1       0       0       0       0       0       0       0       0       0       0       0       0       0       0       0       0
Total ram usage:        1 bytes
 Hardware stack levels used:    1
 Hardware stack levels required when called:    3
 This function calls:
		Nothing
 This function is called by:
		_Network_Init
 This function uses a non-reentrant model


 *************** function _IPV4_GetMyIP *****************
 Defined at:
		line 288 in file "../../TCPIP Library/source/ipv4.c"
 Parameters:    Size  Location     Type
		None
 Auto vars:     Size  Location     Type
		None
 Return value:  Size  Location     Type
                  4    1[COMRAM] unsigned long 
 Registers used:
		None
 Tracked objects:
		On entry : 
		On exit  : 
		Unchanged: 
 Data sizes:     COMRAM   BANK0   BANK1   BANK2   BANK3   BANK4   BANK5   BANK6   BANK7   BANK8   BANK9  BANK10  BANK11  BANK12  BANK13  BANK14  BANK15
      Params:         4       0       0       0       0       0       0       0       0       0       0       0       0       0       0       0       0
      Locals:         0       0       0       0       0       0       0       0       0       0       0       0       0       0       0       0       0
      Temps:          0       0       0       0       0       0       0       0       0       0       0       0       0       0       0       0       0
      Totals:         4       0       0       0       0       0       0       0       0       0       0       0       0       0       0       0       0
Total ram usage:        4 bytes
 Hardware stack levels used:    1
 Hardware stack levels required when called:    3
 This function calls:
		Nothing
 This function is called by:
		_main
 This function uses a non-reentrant model


 *************** function _DEMO_UDP_Send *****************
 Defined at:
		line 379 in file "udp_demo.c"
 Parameters:    Size  Location     Type
		None
 Auto vars:     Size  Location     Type
  pot_adcResul    2   16[BANK0 ] unsigned int 
  started         1   15[BANK0 ] unsigned char 
 Return value:  Size  Location     Type
		None               void
 Registers used:
		wreg, fsr0l, fsr0h, fsr2l, fsr2h, status,2, status,0, tblptrl, tblptrh, tblptru, cstack
 Tracked objects:
		On entry : 
		On exit  : 
		Unchanged: 
 Data sizes:     COMRAM   BANK0   BANK1   BANK2   BANK3   BANK4   BANK5   BANK6   BANK7   BANK8   BANK9  BANK10  BANK11  BANK12  BANK13  BANK14  BANK15
      Params:         0       0       0       0       0       0       0       0       0       0       0       0       0       0       0       0       0
      Locals:         0       3       0       0       0       0       0       0       0       0       0       0       0       0       0       0       0
      Temps:          4       0       0       0       0       0       0       0       0       0       0       0       0       0       0       0       0
      Totals:         4       3       0       0       0       0       0       0       0       0       0       0       0       0       0       0       0
Total ram usage:        7 bytes
 Hardware stack levels used:    1
 Hardware stack levels required when called:   10
 This function calls:
		_ADC_GetConversion
		_DEMO_UDP_ClaimIPCheck
		_UDP_Send
		_UDP_Start
		_UDP_Write32
		_UDP_Write8
 This function is called by:
		_main
 This function uses a non-reentrant model


 *************** function _UDP_Write8 *****************
 Defined at:
		line 182 in file "../../TCPIP Library/source/udpv4.c"
 Parameters:    Size  Location     Type
  data            1    wreg     unsigned char 
 Auto vars:     Size  Location     Type
  data            1    3[COMRAM] unsigned char 
 Return value:  Size  Location     Type
		None               void
 Registers used:
		wreg, status,2, status,0, cstack
 Tracked objects:
		On entry : 
		On exit  : 
		Unchanged: 
 Data sizes:     COMRAM   BANK0   BANK1   BANK2   BANK3   BANK4   BANK5   BANK6   BANK7   BANK8   BANK9  BANK10  BANK11  BANK12  BANK13  BANK14  BANK15
      Params:         0       0       0       0       0       0       0       0       0       0       0       0       0       0       0       0       0
      Locals:         1       0       0       0       0       0       0       0       0       0       0       0       0       0       0       0       0
      Temps:          0       0       0       0       0       0       0       0       0       0       0       0       0       0       0       0       0
      Totals:         1       0       0       0       0       0       0       0       0       0       0       0       0       0       0       0       0
Total ram usage:        1 bytes
 Hardware stack levels used:    1
 Hardware stack levels required when called:    5
 This function calls:
		_ETH_Write8
 This function is called by:
		_DEMO_UDP_Recv
		_DEMO_UDP_Send
 This function uses a non-reentrant model


 *************** function _UDP_Write32 *****************
 Defined at:
		line 193 in file "../../TCPIP Library/source/udpv4.c"
 Parameters:    Size  Location     Type
  data            4    6[COMRAM] unsigned long 
 Auto vars:     Size  Location     Type
		None
 Return value:  Size  Location     Type
		None               void
 Registers used:
		wreg, status,2, status,0, cstack
 Tracked objects:
		On entry : 
		On exit  : 
		Unchanged: 
 Data sizes:     COMRAM   BANK0   BANK1   BANK2   BANK3   BANK4   BANK5   BANK6   BANK7   BANK8   BANK9  BANK10  BANK11  BANK12  BANK13  BANK14  BANK15
      Params:         4       0       0       0       0       0       0       0       0       0       0       0       0       0       0       0       0
      Locals:         0       0       0       0       0       0       0       0       0       0       0       0       0       0       0       0       0
      Temps:          0       0       0       0       0       0       0       0       0       0       0       0       0       0       0       0       0
      Totals:         4       0       0       0       0       0       0       0       0       0       0       0       0       0       0       0       0
Total ram usage:        4 bytes
 Hardware stack levels used:    1
 Hardware stack levels required when called:    5
 This function calls:
		_ETH_Write32
 This function is called by:
		_DEMO_UDP_Send
 This function uses a non-reentrant model


 *************** function _UDP_Start *****************
 Defined at:
		line 71 in file "../../TCPIP Library/source/udpv4.c"
 Parameters:    Size  Location     Type
  destIP          4    7[BANK0 ] unsigned long 
  srcPort         2   11[BANK0 ] unsigned int 
  dstPort         2   13[BANK0 ] unsigned int 
 Auto vars:     Size  Location     Type
  ret             1   87[COMRAM] enum E367
 Return value:  Size  Location     Type
                  1    wreg      enum E449
 Registers used:
		wreg, fsr0l, fsr0h, fsr2l, fsr2h, status,2, status,0, tblptrl, tblptrh, tblptru, cstack
 Tracked objects:
		On entry : 
		On exit  : 
		Unchanged: 
 Data sizes:     COMRAM   BANK0   BANK1   BANK2   BANK3   BANK4   BANK5   BANK6   BANK7   BANK8   BANK9  BANK10  BANK11  BANK12  BANK13  BANK14  BANK15
      Params:         0       8       0       0       0       0       0       0       0       0       0       0       0       0       0       0       0
      Locals:         1       0       0       0       0       0       0       0       0       0       0       0       0       0       0       0       0
      Temps:          0       0       0       0       0       0       0       0       0       0       0       0       0       0       0       0       0
      Totals:         1       8       0       0       0       0       0       0       0       0       0       0       0       0       0       0       0
Total ram usage:        9 bytes
 Hardware stack levels used:    1
 Hardware stack levels required when called:    9
 This function calls:
		_ETH_ResetByteCount
		_ETH_Write16
		_IPv4_Start
 This function is called by:
		_DHCP_Request
		_DEMO_UDP_Recv
		_DEMO_UDP_Send
 This function uses a non-reentrant model


 *************** function _IPv4_Start *****************
 Defined at:
		line 213 in file "../../TCPIP Library/source/ipv4.c"
 Parameters:    Size  Location     Type
  destAddress     4   74[COMRAM] unsigned long 
  protocol        1   78[COMRAM] enum E6803
 Auto vars:     Size  Location     Type
  targetAddres    4    0[BANK0 ] unsigned long 
  macAddress      2    4[BANK0 ] PTR const struct .
		 -> arpMap.macAddress(6), broadcastMAC(6), arpMap(104), NULL(0), 
  ret             1    6[BANK0 ] enum E6944
 Return value:  Size  Location     Type
                  1    wreg      enum E366
 Registers used:
		wreg, fsr0l, fsr0h, fsr2l, fsr2h, status,2, status,0, tblptrl, tblptrh, tblptru, cstack
 Tracked objects:
		On entry : 
		On exit  : 
		Unchanged: 
 Data sizes:     COMRAM   BANK0   BANK1   BANK2   BANK3   BANK4   BANK5   BANK6   BANK7   BANK8   BANK9  BANK10  BANK11  BANK12  BANK13  BANK14  BANK15
      Params:         5       0       0       0       0       0       0       0       0       0       0       0       0       0       0       0       0
      Locals:         0       7       0       0       0       0       0       0       0       0       0       0       0       0       0       0       0
      Temps:          8       0       0       0       0       0       0       0       0       0       0       0       0       0       0       0       0
      Totals:        13       7       0       0       0       0       0       0       0       0       0       0       0       0       0       0       0
Total ram usage:       20 bytes
 Hardware stack levels used:    1
 Hardware stack levels required when called:    8
 This function calls:
		_ARPV4_Lookup
		_ARPV4_Request
		_ETH_Write16
		_ETH_Write32
		_ETH_Write8
		_ETH_WriteStart
 This function is called by:
		_ICMP_EchoReply
		_TCP_Snd
		_UDP_Start
 This function uses a non-reentrant model


 *************** function _ETH_Write8 *****************
 Defined at:
		line 334 in file "../../TCPIP Library/ethernet_drivers/encX24j600_spi.c"
 Parameters:    Size  Location     Type
  data            1    wreg     unsigned char 
 Auto vars:     Size  Location     Type
  data            1    2[COMRAM] unsigned char 
 Return value:  Size  Location     Type
		None               void
 Registers used:
		wreg, status,2, status,0, cstack
 Tracked objects:
		On entry : 
		On exit  : 
		Unchanged: 
 Data sizes:     COMRAM   BANK0   BANK1   BANK2   BANK3   BANK4   BANK5   BANK6   BANK7   BANK8   BANK9  BANK10  BANK11  BANK12  BANK13  BANK14  BANK15
      Params:         0       0       0       0       0       0       0       0       0       0       0       0       0       0       0       0       0
      Locals:         1       0       0       0       0       0       0       0       0       0       0       0       0       0       0       0       0
      Temps:          0       0       0       0       0       0       0       0       0       0       0       0       0       0       0       0       0
      Totals:         1       0       0       0       0       0       0       0       0       0       0       0       0       0       0       0       0
Total ram usage:        1 bytes
 Hardware stack levels used:    1
 Hardware stack levels required when called:    4
 This function calls:
		_SPI_ExchangeByte
 This function is called by:
		_DHCP_Request
		_DHCP_WriteZeros
		_IPv4_Start
		_UDP_Write8
 This function uses a non-reentrant model


 *************** function _ETH_Write32 *****************
 Defined at:
		line 376 in file "../../TCPIP Library/ethernet_drivers/encX24j600_spi.c"
 Parameters:    Size  Location     Type
  data            4    2[COMRAM] unsigned long 
 Auto vars:     Size  Location     Type
		None
 Return value:  Size  Location     Type
		None               void
 Registers used:
		wreg, status,2, status,0, cstack
 Tracked objects:
		On entry : 
		On exit  : 
		Unchanged: 
 Data sizes:     COMRAM   BANK0   BANK1   BANK2   BANK3   BANK4   BANK5   BANK6   BANK7   BANK8   BANK9  BANK10  BANK11  BANK12  BANK13  BANK14  BANK15
      Params:         4       0       0       0       0       0       0       0       0       0       0       0       0       0       0       0       0
      Locals:         0       0       0       0       0       0       0       0       0       0       0       0       0       0       0       0       0
      Temps:          0       0       0       0       0       0       0       0       0       0       0       0       0       0       0       0       0
      Totals:         4       0       0       0       0       0       0       0       0       0       0       0       0       0       0       0       0
Total ram usage:        4 bytes
 Hardware stack levels used:    1
 Hardware stack levels required when called:    4
 This function calls:
		_SPI_ExchangeByte
 This function is called by:
		_DHCP_Request
		_IPv4_Start
		_UDP_Write32
 This function uses a non-reentrant model


 *************** function _ARPV4_Request *****************
 Defined at:
		line 194 in file "../../TCPIP Library/source/arpv4.c"
 Parameters:    Size  Location     Type
  destAddress     4   14[COMRAM] unsigned long 
 Auto vars:     Size  Location     Type
  header         28   46[COMRAM] struct .
  ret             1   45[COMRAM] enum E450
 Return value:  Size  Location     Type
                  1    wreg      enum E450
 Registers used:
		wreg, fsr0l, fsr0h, fsr2l, fsr2h, status,2, status,0, tblptrl, tblptrh, tblptru, cstack
 Tracked objects:
		On entry : 
		On exit  : 
		Unchanged: 
 Data sizes:     COMRAM   BANK0   BANK1   BANK2   BANK3   BANK4   BANK5   BANK6   BANK7   BANK8   BANK9  BANK10  BANK11  BANK12  BANK13  BANK14  BANK15
      Params:         4       0       0       0       0       0       0       0       0       0       0       0       0       0       0       0       0
      Locals:        29       0       0       0       0       0       0       0       0       0       0       0       0       0       0       0       0
      Temps:         27       0       0       0       0       0       0       0       0       0       0       0       0       0       0       0       0
      Totals:        60       0       0       0       0       0       0       0       0       0       0       0       0       0       0       0       0
Total ram usage:       60 bytes
 Hardware stack levels used:    1
 Hardware stack levels required when called:    7
 This function calls:
		_ETH_GetMAC
		_ETH_Send
		_ETH_WriteBlock
		_ETH_WriteStart
 This function is called by:
		_IPv4_Start
 This function uses a non-reentrant model


 *************** function _ETH_WriteStart *****************
 Defined at:
		line 366 in file "../../TCPIP Library/ethernet_drivers/encX24J600_driver.c"
 Parameters:    Size  Location     Type
  destMAC         2   10[COMRAM] PTR const struct .
		 -> arpMap.macAddress(6), broadcastMAC(6), header.sha(6), ARPV4_Packet@header(28), 
		 -> arpMap(104), NULL(0), 
  type            2   12[COMRAM] unsigned int 
 Auto vars:     Size  Location     Type
		None
 Return value:  Size  Location     Type
                  1    wreg      enum E6988
 Registers used:
		wreg, fsr0l, fsr0h, status,2, status,0, tblptrl, tblptrh, tblptru, cstack
 Tracked objects:
		On entry : 
		On exit  : 
		Unchanged: 
 Data sizes:     COMRAM   BANK0   BANK1   BANK2   BANK3   BANK4   BANK5   BANK6   BANK7   BANK8   BANK9  BANK10  BANK11  BANK12  BANK13  BANK14  BANK15
      Params:         4       0       0       0       0       0       0       0       0       0       0       0       0       0       0       0       0
      Locals:         0       0       0       0       0       0       0       0       0       0       0       0       0       0       0       0       0
      Temps:          0       0       0       0       0       0       0       0       0       0       0       0       0       0       0       0       0
      Totals:         4       0       0       0       0       0       0       0       0       0       0       0       0       0       0       0       0
Total ram usage:        4 bytes
 Hardware stack levels used:    1
 Hardware stack levels required when called:    6
 This function calls:
		_ENCx24_Read
		_ENCx24_Write
		_ETH_Write16
		_ETH_WriteBlock
 This function is called by:
		_ARPV4_Packet
		_ARPV4_Request
		_IPv4_Start
 This function uses a non-reentrant model


 *************** function _ETH_WriteBlock *****************
 Defined at:
		line 393 in file "../../TCPIP Library/ethernet_drivers/encX24j600_spi.c"
 Parameters:    Size  Location     Type
  data            2    2[COMRAM] PTR void 
		 -> arpMap.macAddress(6), ?_sprintf(2), ?_printf(2), DEMO_UDP_Recv@local_ip(4), 
		 -> main@str(32), STR_5(13), STR_4(17), TCP_Snd@txHeader(20), 
		 -> Network_Read@debug_str(80), dhcpName(21), DHCP_Request@ethMAC(6), broadcastMAC(6), 
		 -> ARPV4_Request@header(28), header.sha(6), ARPV4_Packet@header(28), arpMap(104), 
		 -> ethMAC(6), NULL(0), 
  len             2    4[COMRAM] unsigned int 
 Auto vars:     Size  Location     Type
  p               2    6[COMRAM] PTR unsigned char 
		 -> arpMap.macAddress(6), ?_sprintf(2), ?_printf(2), DEMO_UDP_Recv@local_ip(4), 
		 -> main@str(32), STR_5(13), STR_4(17), TCP_Snd@txHeader(20), 
		 -> Network_Read@debug_str(80), dhcpName(21), DHCP_Request@ethMAC(6), broadcastMAC(6), 
		 -> ARPV4_Request@header(28), header.sha(6), ARPV4_Packet@header(28), arpMap(104), 
		 -> ethMAC(6), NULL(0), 
 Return value:  Size  Location     Type
                  2    2[COMRAM] unsigned int 
 Registers used:
		wreg, fsr0l, fsr0h, status,2, status,0, tblptrl, tblptrh, tblptru, cstack
 Tracked objects:
		On entry : 
		On exit  : 
		Unchanged: 
 Data sizes:     COMRAM   BANK0   BANK1   BANK2   BANK3   BANK4   BANK5   BANK6   BANK7   BANK8   BANK9  BANK10  BANK11  BANK12  BANK13  BANK14  BANK15
      Params:         4       0       0       0       0       0       0       0       0       0       0       0       0       0       0       0       0
      Locals:         2       0       0       0       0       0       0       0       0       0       0       0       0       0       0       0       0
      Temps:          0       0       0       0       0       0       0       0       0       0       0       0       0       0       0       0       0
      Totals:         6       0       0       0       0       0       0       0       0       0       0       0       0       0       0       0       0
Total ram usage:        6 bytes
 Hardware stack levels used:    1
 Hardware stack levels required when called:    4
 This function calls:
		_SPI_ExchangeByte
 This function is called by:
		_ETH_WriteStart
		_ARPV4_Packet
		_ARPV4_Request
		_DHCP_Request
		_TCP_Snd
		_UDP_WriteBlock
 This function uses a non-reentrant model


 *************** function _ETH_Write16 *****************
 Defined at:
		line 347 in file "../../TCPIP Library/ethernet_drivers/encX24j600_spi.c"
 Parameters:    Size  Location     Type
  data            2    2[COMRAM] unsigned int 
 Auto vars:     Size  Location     Type
		None
 Return value:  Size  Location     Type
		None               void
 Registers used:
		wreg, status,2, status,0, cstack
 Tracked objects:
		On entry : 
		On exit  : 
		Unchanged: 
 Data sizes:     COMRAM   BANK0   BANK1   BANK2   BANK3   BANK4   BANK5   BANK6   BANK7   BANK8   BANK9  BANK10  BANK11  BANK12  BANK13  BANK14  BANK15
      Params:         2       0       0       0       0       0       0       0       0       0       0       0       0       0       0       0       0
      Locals:         0       0       0       0       0       0       0       0       0       0       0       0       0       0       0       0       0
      Temps:          0       0       0       0       0       0       0       0       0       0       0       0       0       0       0       0       0
      Totals:         2       0       0       0       0       0       0       0       0       0       0       0       0       0       0       0       0
Total ram usage:        2 bytes
 Hardware stack levels used:    1
 Hardware stack levels required when called:    4
 This function calls:
		_SPI_ExchangeByte
 This function is called by:
		_ETH_WriteStart
		_DHCP_Request
		_ICMP_EchoReply
		_IPv4_Start
		_UDP_Start
		_UDP_Write16
 This function uses a non-reentrant model


 *************** function _ETH_GetMAC *****************
 Defined at:
		line 456 in file "../../TCPIP Library/ethernet_drivers/encX24J600_driver.c"
 Parameters:    Size  Location     Type
  macAddr         2    7[COMRAM] PTR unsigned char 
		 -> DHCP_Handler@ethMAC(6), DHCP_Request@ethMAC(6), ARPV4_Request@header(28), header.sha(6), 
		 -> ARPV4_Packet@header(28), ethMAC(6), 
 Auto vars:     Size  Location     Type
		None
 Return value:  Size  Location     Type
		None               void
 Registers used:
		wreg, fsr2l, fsr2h, status,2, status,0, cstack
 Tracked objects:
		On entry : 
		On exit  : 
		Unchanged: 
 Data sizes:     COMRAM   BANK0   BANK1   BANK2   BANK3   BANK4   BANK5   BANK6   BANK7   BANK8   BANK9  BANK10  BANK11  BANK12  BANK13  BANK14  BANK15
      Params:         2       0       0       0       0       0       0       0       0       0       0       0       0       0       0       0       0
      Locals:         0       0       0       0       0       0       0       0       0       0       0       0       0       0       0       0       0
      Temps:          0       0       0       0       0       0       0       0       0       0       0       0       0       0       0       0       0
      Totals:         2       0       0       0       0       0       0       0       0       0       0       0       0       0       0       0       0
Total ram usage:        2 bytes
 Hardware stack levels used:    1
 Hardware stack levels required when called:    6
 This function calls:
		_ETH_MACRead8
 This function is called by:
		_ETH_Init
		_ARPV4_Packet
		_ARPV4_Request
		_DHCP_Request
		_DHCP_Handler
 This function uses a non-reentrant model


 *************** function _ETH_MACRead8 *****************
 Defined at:
		line 504 in file "../../TCPIP Library/ethernet_drivers/encX24j600_spi.c"
 Parameters:    Size  Location     Type
  a               1    wreg     enum E6725
 Auto vars:     Size  Location     Type
  a               1    6[COMRAM] enum E6725
  bank            1    5[COMRAM] unsigned char 
  v               1    4[COMRAM] unsigned char 
 Return value:  Size  Location     Type
                  1    wreg      unsigned char 
 Registers used:
		wreg, status,2, status,0, cstack
 Tracked objects:
		On entry : 
		On exit  : 
		Unchanged: 
 Data sizes:     COMRAM   BANK0   BANK1   BANK2   BANK3   BANK4   BANK5   BANK6   BANK7   BANK8   BANK9  BANK10  BANK11  BANK12  BANK13  BANK14  BANK15
      Params:         0       0       0       0       0       0       0       0       0       0       0       0       0       0       0       0       0
      Locals:         3       0       0       0       0       0       0       0       0       0       0       0       0       0       0       0       0
      Temps:          0       0       0       0       0       0       0       0       0       0       0       0       0       0       0       0       0
      Totals:         3       0       0       0       0       0       0       0       0       0       0       0       0       0       0       0       0
Total ram usage:        3 bytes
 Hardware stack levels used:    1
 Hardware stack levels required when called:    5
 This function calls:
		_ENCx24_BankselSPI
		_SPI_ExchangeByte
 This function is called by:
		_ETH_GetMAC
 This function uses a non-reentrant model


 *************** function _ARPV4_Lookup *****************
 Defined at:
		line 234 in file "../../TCPIP Library/source/arpv4.c"
 Parameters:    Size  Location     Type
  ip_address      4    1[COMRAM] unsigned long 
 Auto vars:     Size  Location     Type
  entry_pointe    2    9[COMRAM] PTR struct .
		 -> arpMap(104), 
  x               1   11[COMRAM] unsigned char 
 Return value:  Size  Location     Type
                  2    1[COMRAM] PTR struct .
 Registers used:
		wreg, fsr2l, fsr2h, status,2, status,0
 Tracked objects:
		On entry : 
		On exit  : 
		Unchanged: 
 Data sizes:     COMRAM   BANK0   BANK1   BANK2   BANK3   BANK4   BANK5   BANK6   BANK7   BANK8   BANK9  BANK10  BANK11  BANK12  BANK13  BANK14  BANK15
      Params:         4       0       0       0       0       0       0       0       0       0       0       0       0       0       0       0       0
      Locals:         3       0       0       0       0       0       0       0       0       0       0       0       0       0       0       0       0
      Temps:          4       0       0       0       0       0       0       0       0       0       0       0       0       0       0       0       0
      Totals:        11       0       0       0       0       0       0       0       0       0       0       0       0       0       0       0       0
Total ram usage:       11 bytes
 Hardware stack levels used:    1
 Hardware stack levels required when called:    3
 This function calls:
		Nothing
 This function is called by:
		_IPv4_Start
 This function uses a non-reentrant model


 *************** function _ETH_ResetByteCount *****************
 Defined at:
		line 597 in file "../../TCPIP Library/ethernet_drivers/encX24J600_driver.c"
 Parameters:    Size  Location     Type
		None
 Auto vars:     Size  Location     Type
		None
 Return value:  Size  Location     Type
		None               void
 Registers used:
		wreg, status,2, status,0, cstack
 Tracked objects:
		On entry : 
		On exit  : 
		Unchanged: 
 Data sizes:     COMRAM   BANK0   BANK1   BANK2   BANK3   BANK4   BANK5   BANK6   BANK7   BANK8   BANK9  BANK10  BANK11  BANK12  BANK13  BANK14  BANK15
      Params:         0       0       0       0       0       0       0       0       0       0       0       0       0       0       0       0       0
      Locals:         0       0       0       0       0       0       0       0       0       0       0       0       0       0       0       0       0
      Temps:          0       0       0       0       0       0       0       0       0       0       0       0       0       0       0       0       0
      Totals:         0       0       0       0       0       0       0       0       0       0       0       0       0       0       0       0       0
Total ram usage:        0 bytes
 Hardware stack levels used:    1
 Hardware stack levels required when called:    6
 This function calls:
		_ENCx24_Read
 This function is called by:
		_UDP_Start
 This function uses a non-reentrant model


 *************** function _UDP_Send *****************
 Defined at:
		line 99 in file "../../TCPIP Library/source/udpv4.c"
 Parameters:    Size  Location     Type
		None
 Auto vars:     Size  Location     Type
  udpLength       2   46[COMRAM] unsigned int 
  cksm            2   44[COMRAM] unsigned int 
  ret             1    0        enum E367
 Return value:  Size  Location     Type
                  1    wreg      enum E449
 Registers used:
		wreg, fsr2l, fsr2h, status,2, status,0, cstack
 Tracked objects:
		On entry : 
		On exit  : 
		Unchanged: 
 Data sizes:     COMRAM   BANK0   BANK1   BANK2   BANK3   BANK4   BANK5   BANK6   BANK7   BANK8   BANK9  BANK10  BANK11  BANK12  BANK13  BANK14  BANK15
      Params:         0       0       0       0       0       0       0       0       0       0       0       0       0       0       0       0       0
      Locals:         5       0       0       0       0       0       0       0       0       0       0       0       0       0       0       0       0
      Temps:          4       0       0       0       0       0       0       0       0       0       0       0       0       0       0       0       0
      Totals:         9       0       0       0       0       0       0       0       0       0       0       0       0       0       0       0       0
Total ram usage:        9 bytes
 Hardware stack levels used:    1
 Hardware stack levels required when called:    9
 This function calls:
		_ETH_GetByteCount
		_ETH_Insert
		_ETH_TxComputeChecksum
		_IPV4_Send
 This function is called by:
		_DHCP_Request
		_DEMO_UDP_Recv
		_DEMO_UDP_Send
 This function uses a non-reentrant model


 *************** function _IPV4_Send *****************
 Defined at:
		line 267 in file "../../TCPIP Library/source/ipv4.c"
 Parameters:    Size  Location     Type
  payloadLengt    2   28[COMRAM] unsigned int 
 Auto vars:     Size  Location     Type
  totalLength     2   37[COMRAM] unsigned int 
  cksm            2   35[COMRAM] unsigned int 
  ret             1   34[COMRAM] enum E6944
 Return value:  Size  Location     Type
                  1    wreg      enum E366
 Registers used:
		wreg, fsr2l, fsr2h, status,2, status,0, cstack
 Tracked objects:
		On entry : 
		On exit  : 
		Unchanged: 
 Data sizes:     COMRAM   BANK0   BANK1   BANK2   BANK3   BANK4   BANK5   BANK6   BANK7   BANK8   BANK9  BANK10  BANK11  BANK12  BANK13  BANK14  BANK15
      Params:         2       0       0       0       0       0       0       0       0       0       0       0       0       0       0       0       0
      Locals:         5       0       0       0       0       0       0       0       0       0       0       0       0       0       0       0       0
      Temps:          4       0       0       0       0       0       0       0       0       0       0       0       0       0       0       0       0
      Totals:        11       0       0       0       0       0       0       0       0       0       0       0       0       0       0       0       0
Total ram usage:       11 bytes
 Hardware stack levels used:    1
 Hardware stack levels required when called:    8
 This function calls:
		_ETH_Insert
		_ETH_Send
		_ETH_TxComputeChecksum
 This function is called by:
		_ICMP_EchoReply
		_TCP_Snd
		_UDP_Send
 This function uses a non-reentrant model


 *************** function _ETH_TxComputeChecksum *****************
 Defined at:
		line 501 in file "../../TCPIP Library/ethernet_drivers/encX24J600_driver.c"
 Parameters:    Size  Location     Type
  position        2   12[COMRAM] unsigned int 
  length          2   14[COMRAM] unsigned int 
  seed            2   16[COMRAM] unsigned int 
 Auto vars:     Size  Location     Type
  cksm            4   22[COMRAM] unsigned long 
  econ1Val        2   26[COMRAM] unsigned int 
 Return value:  Size  Location     Type
                  2   12[COMRAM] unsigned int 
 Registers used:
		wreg, status,2, status,0, cstack
 Tracked objects:
		On entry : 
		On exit  : 
		Unchanged: 
 Data sizes:     COMRAM   BANK0   BANK1   BANK2   BANK3   BANK4   BANK5   BANK6   BANK7   BANK8   BANK9  BANK10  BANK11  BANK12  BANK13  BANK14  BANK15
      Params:         6       0       0       0       0       0       0       0       0       0       0       0       0       0       0       0       0
      Locals:         6       0       0       0       0       0       0       0       0       0       0       0       0       0       0       0       0
      Temps:          4       0       0       0       0       0       0       0       0       0       0       0       0       0       0       0       0
      Totals:        16       0       0       0       0       0       0       0       0       0       0       0       0       0       0       0       0
Total ram usage:       16 bytes
 Hardware stack levels used:    1
 Hardware stack levels required when called:    7
 This function calls:
		_ENCx24_BFC
		_ENCx24_BFS
		_ENCx24_Read
		_ENCx24_Write
		_waitForDMA
 This function is called by:
		_ICMP_EchoReply
		_IPV4_Send
		_TCP_Snd
		_UDP_Send
 This function uses a non-reentrant model


 *************** function _waitForDMA *****************
 Defined at:
		line 483 in file "../../TCPIP Library/ethernet_drivers/encX24J600_driver.c"
 Parameters:    Size  Location     Type
		None
 Auto vars:     Size  Location     Type
  econ1_val       2   10[COMRAM] unsigned int 
 Return value:  Size  Location     Type
		None               void
 Registers used:
		wreg, status,2, status,0, cstack
 Tracked objects:
		On entry : 
		On exit  : 
		Unchanged: 
 Data sizes:     COMRAM   BANK0   BANK1   BANK2   BANK3   BANK4   BANK5   BANK6   BANK7   BANK8   BANK9  BANK10  BANK11  BANK12  BANK13  BANK14  BANK15
      Params:         0       0       0       0       0       0       0       0       0       0       0       0       0       0       0       0       0
      Locals:         2       0       0       0       0       0       0       0       0       0       0       0       0       0       0       0       0
      Temps:          0       0       0       0       0       0       0       0       0       0       0       0       0       0       0       0       0
      Totals:         2       0       0       0       0       0       0       0       0       0       0       0       0       0       0       0       0
Total ram usage:        2 bytes
 Hardware stack levels used:    1
 Hardware stack levels required when called:    6
 This function calls:
		_ENCx24_Read
 This function is called by:
		_ETH_Copy
		_ETH_TxComputeChecksum
		_ETH_RxComputeChecksum
 This function uses a non-reentrant model


 *************** function _ENCx24_BFS *****************
 Defined at:
		line 151 in file "../../TCPIP Library/ethernet_drivers/encX24j600_spi.c"
 Parameters:    Size  Location     Type
  a               1    wreg     enum E6725
  bitMask         2    4[COMRAM] unsigned int 
 Auto vars:     Size  Location     Type
  a               1    7[COMRAM] enum E6725
  bank            1    6[COMRAM] unsigned char 
 Return value:  Size  Location     Type
		None               void
 Registers used:
		wreg, status,2, status,0, cstack
 Tracked objects:
		On entry : 
		On exit  : 
		Unchanged: 
 Data sizes:     COMRAM   BANK0   BANK1   BANK2   BANK3   BANK4   BANK5   BANK6   BANK7   BANK8   BANK9  BANK10  BANK11  BANK12  BANK13  BANK14  BANK15
      Params:         2       0       0       0       0       0       0       0       0       0       0       0       0       0       0       0       0
      Locals:         2       0       0       0       0       0       0       0       0       0       0       0       0       0       0       0       0
      Temps:          0       0       0       0       0       0       0       0       0       0       0       0       0       0       0       0       0
      Totals:         4       0       0       0       0       0       0       0       0       0       0       0       0       0       0       0       0
Total ram usage:        4 bytes
 Hardware stack levels used:    1
 Hardware stack levels required when called:    5
 This function calls:
		_ENCx24_BankselSPI
		_SPI_ExchangeByte
 This function is called by:
		_ETH_SendSystemReset
		_ETH_Init
		_ETH_ResetReceiver
		_ETH_Copy
		_ETH_TxComputeChecksum
		_ETH_RxComputeChecksum
		_ENCx24_PhyRead
 This function uses a non-reentrant model


 *************** function _ENCx24_BFC *****************
 Defined at:
		line 177 in file "../../TCPIP Library/ethernet_drivers/encX24j600_spi.c"
 Parameters:    Size  Location     Type
  a               1    wreg     enum E6725
  bitMask         2    4[COMRAM] unsigned int 
 Auto vars:     Size  Location     Type
  a               1    7[COMRAM] enum E6725
  bank            1    6[COMRAM] unsigned char 
 Return value:  Size  Location     Type
		None               void
 Registers used:
		wreg, status,2, status,0, cstack
 Tracked objects:
		On entry : 
		On exit  : 
		Unchanged: 
 Data sizes:     COMRAM   BANK0   BANK1   BANK2   BANK3   BANK4   BANK5   BANK6   BANK7   BANK8   BANK9  BANK10  BANK11  BANK12  BANK13  BANK14  BANK15
      Params:         2       0       0       0       0       0       0       0       0       0       0       0       0       0       0       0       0
      Locals:         2       0       0       0       0       0       0       0       0       0       0       0       0       0       0       0       0
      Temps:          0       0       0       0       0       0       0       0       0       0       0       0       0       0       0       0       0
      Totals:         4       0       0       0       0       0       0       0       0       0       0       0       0       0       0       0       0
Total ram usage:        4 bytes
 Hardware stack levels used:    1
 Hardware stack levels required when called:    5
 This function calls:
		_ENCx24_BankselSPI
		_SPI_ExchangeByte
 This function is called by:
		_ETH_EventHandler
		_ETH_ResetReceiver
		_ETH_Copy
		_ETH_TxComputeChecksum
		_ETH_RxComputeChecksum
		_ENCx24_PhyRead
 This function uses a non-reentrant model


 *************** function _ETH_Send *****************
 Defined at:
		line 393 in file "../../TCPIP Library/ethernet_drivers/encX24J600_driver.c"
 Parameters:    Size  Location     Type
		None
 Auto vars:     Size  Location     Type
		None
 Return value:  Size  Location     Type
                  1    wreg      enum E6988
 Registers used:
		wreg, status,2, status,0, cstack
 Tracked objects:
		On entry : 
		On exit  : 
		Unchanged: 
 Data sizes:     COMRAM   BANK0   BANK1   BANK2   BANK3   BANK4   BANK5   BANK6   BANK7   BANK8   BANK9  BANK10  BANK11  BANK12  BANK13  BANK14  BANK15
      Params:         0       0       0       0       0       0       0       0       0       0       0       0       0       0       0       0       0
      Locals:         0       0       0       0       0       0       0       0       0       0       0       0       0       0       0       0       0
      Temps:          0       0       0       0       0       0       0       0       0       0       0       0       0       0       0       0       0
      Totals:         0       0       0       0       0       0       0       0       0       0       0       0       0       0       0       0       0
Total ram usage:        0 bytes
 Hardware stack levels used:    1
 Hardware stack levels required when called:    6
 This function calls:
		_ENCx24_Write
		_ETH_Set_TXRTS
 This function is called by:
		_ARPV4_Packet
		_ARPV4_Request
		_IPV4_Send
 This function uses a non-reentrant model


 *************** function _ETH_Set_TXRTS *****************
 Defined at:
		line 435 in file "../../TCPIP Library/ethernet_drivers/encX24j600_spi.c"
 Parameters:    Size  Location     Type
		None
 Auto vars:     Size  Location     Type
		None
 Return value:  Size  Location     Type
		None               void
 Registers used:
		wreg, status,2, cstack
 Tracked objects:
		On entry : 
		On exit  : 
		Unchanged: 
 Data sizes:     COMRAM   BANK0   BANK1   BANK2   BANK3   BANK4   BANK5   BANK6   BANK7   BANK8   BANK9  BANK10  BANK11  BANK12  BANK13  BANK14  BANK15
      Params:         0       0       0       0       0       0       0       0       0       0       0       0       0       0       0       0       0
      Locals:         0       0       0       0       0       0       0       0       0       0       0       0       0       0       0       0       0
      Temps:          0       0       0       0       0       0       0       0       0       0       0       0       0       0       0       0       0
      Totals:         0       0       0       0       0       0       0       0       0       0       0       0       0       0       0       0       0
Total ram usage:        0 bytes
 Hardware stack levels used:    1
 Hardware stack levels required when called:    4
 This function calls:
		_SPI_ExchangeByte
 This function is called by:
		_ETH_Send
 This function uses a non-reentrant model


 *************** function _ETH_Insert *****************
 Defined at:
		line 416 in file "../../TCPIP Library/ethernet_drivers/encX24j600_spi.c"
 Parameters:    Size  Location     Type
  data            1    wreg     PTR unsigned char 
		 -> UDP_Send@cksm(2), UDP_Send@udpLength(2), TCP_Snd@cksm(2), IPV4_Send@cksm(2), 
		 -> IPV4_Send@totalLength(2), ICMP_EchoReply@cksm(2), 
  len             2   10[COMRAM] unsigned int 
  offset          2   12[COMRAM] unsigned int 
 Auto vars:     Size  Location     Type
  data            1   16[COMRAM] PTR unsigned char 
		 -> UDP_Send@cksm(2), UDP_Send@udpLength(2), TCP_Snd@cksm(2), IPV4_Send@cksm(2), 
		 -> IPV4_Send@totalLength(2), ICMP_EchoReply@cksm(2), 
  current_tx_p    2   14[COMRAM] unsigned int 
 Return value:  Size  Location     Type
		None               void
 Registers used:
		wreg, fsr2l, fsr2h, status,2, status,0, cstack
 Tracked objects:
		On entry : 
		On exit  : 
		Unchanged: 
 Data sizes:     COMRAM   BANK0   BANK1   BANK2   BANK3   BANK4   BANK5   BANK6   BANK7   BANK8   BANK9  BANK10  BANK11  BANK12  BANK13  BANK14  BANK15
      Params:         4       0       0       0       0       0       0       0       0       0       0       0       0       0       0       0       0
      Locals:         3       0       0       0       0       0       0       0       0       0       0       0       0       0       0       0       0
      Temps:          0       0       0       0       0       0       0       0       0       0       0       0       0       0       0       0       0
      Totals:         7       0       0       0       0       0       0       0       0       0       0       0       0       0       0       0       0
Total ram usage:        7 bytes
 Hardware stack levels used:    1
 Hardware stack levels required when called:    6
 This function calls:
		_ENCx24_Read
		_ENCx24_Write
		_SPI_ExchangeByte
 This function is called by:
		_ICMP_EchoReply
		_IPV4_Send
		_TCP_Snd
		_UDP_Send
 This function uses a non-reentrant model


 *************** function _ENCx24_Write *****************
 Defined at:
		line 124 in file "../../TCPIP Library/ethernet_drivers/encX24j600_spi.c"
 Parameters:    Size  Location     Type
  a               1    wreg     enum E6725
  data            2    4[COMRAM] unsigned int 
 Auto vars:     Size  Location     Type
  a               1    7[COMRAM] enum E6725
  bank            1    6[COMRAM] unsigned char 
 Return value:  Size  Location     Type
		None               void
 Registers used:
		wreg, status,2, status,0, cstack
 Tracked objects:
		On entry : 
		On exit  : 
		Unchanged: 
 Data sizes:     COMRAM   BANK0   BANK1   BANK2   BANK3   BANK4   BANK5   BANK6   BANK7   BANK8   BANK9  BANK10  BANK11  BANK12  BANK13  BANK14  BANK15
      Params:         2       0       0       0       0       0       0       0       0       0       0       0       0       0       0       0       0
      Locals:         2       0       0       0       0       0       0       0       0       0       0       0       0       0       0       0       0
      Temps:          0       0       0       0       0       0       0       0       0       0       0       0       0       0       0       0       0
      Totals:         4       0       0       0       0       0       0       0       0       0       0       0       0       0       0       0       0
Total ram usage:        4 bytes
 Hardware stack levels used:    1
 Hardware stack levels required when called:    5
 This function calls:
		_ENCx24_BankselSPI
		_SPI_ExchangeByte
 This function is called by:
		_ETH_SendSystemReset
		_ETH_Init
		_ETH_EventHandler
		_ETH_ResetReceiver
		_ETH_Dump
		_ETH_Flush
		_ETH_WriteStart
		_ETH_Send
		_ETH_Copy
		_ETH_TxComputeChecksum
		_ETH_RxComputeChecksum
		_ENCx24_PhyRead
		_ENCx24_PHYWrite
		_ETH_Insert
 This function uses a non-reentrant model


 *************** function _ETH_GetByteCount *****************
 Defined at:
		line 602 in file "../../TCPIP Library/ethernet_drivers/encX24J600_driver.c"
 Parameters:    Size  Location     Type
		None
 Auto vars:     Size  Location     Type
  wPtr            2   12[COMRAM] unsigned int 
 Return value:  Size  Location     Type
                  2   10[COMRAM] unsigned int 
 Registers used:
		wreg, status,2, status,0, cstack
 Tracked objects:
		On entry : 
		On exit  : 
		Unchanged: 
 Data sizes:     COMRAM   BANK0   BANK1   BANK2   BANK3   BANK4   BANK5   BANK6   BANK7   BANK8   BANK9  BANK10  BANK11  BANK12  BANK13  BANK14  BANK15
      Params:         2       0       0       0       0       0       0       0       0       0       0       0       0       0       0       0       0
      Locals:         2       0       0       0       0       0       0       0       0       0       0       0       0       0       0       0       0
      Temps:          0       0       0       0       0       0       0       0       0       0       0       0       0       0       0       0       0
      Totals:         4       0       0       0       0       0       0       0       0       0       0       0       0       0       0       0       0
Total ram usage:        4 bytes
 Hardware stack levels used:    1
 Hardware stack levels required when called:    6
 This function calls:
		_ENCx24_Read
 This function is called by:
		_UDP_Send
 This function uses a non-reentrant model


 *************** function _ENCx24_Read *****************
 Defined at:
		line 95 in file "../../TCPIP Library/ethernet_drivers/encX24j600_spi.c"
 Parameters:    Size  Location     Type
  a               1    wreg     enum E6725
 Auto vars:     Size  Location     Type
  a               1    9[COMRAM] enum E6725
  v               2    7[COMRAM] unsigned int 
  bank            1    6[COMRAM] unsigned char 
 Return value:  Size  Location     Type
                  2    4[COMRAM] unsigned int 
 Registers used:
		wreg, status,2, status,0, cstack
 Tracked objects:
		On entry : 
		On exit  : 
		Unchanged: 
 Data sizes:     COMRAM   BANK0   BANK1   BANK2   BANK3   BANK4   BANK5   BANK6   BANK7   BANK8   BANK9  BANK10  BANK11  BANK12  BANK13  BANK14  BANK15
      Params:         2       0       0       0       0       0       0       0       0       0       0       0       0       0       0       0       0
      Locals:         4       0       0       0       0       0       0       0       0       0       0       0       0       0       0       0       0
      Temps:          0       0       0       0       0       0       0       0       0       0       0       0       0       0       0       0       0
      Totals:         6       0       0       0       0       0       0       0       0       0       0       0       0       0       0       0       0
Total ram usage:        6 bytes
 Hardware stack levels used:    1
 Hardware stack levels required when called:    5
 This function calls:
		_ENCx24_BankselSPI
		_SPI_ExchangeByte
 This function is called by:
		_ETH_SendSystemReset
		_ETH_Init
		_ETH_readLinkStatus
		_ETH_EventHandler
		_ETH_Dump
		_ETH_WriteStart
		_ETH_Copy
		_waitForDMA
		_ETH_TxComputeChecksum
		_ETH_RxComputeChecksum
		_ETH_SaveRDPT
		_ETH_ResetByteCount
		_ETH_GetByteCount
		_ENCx24_PhyRead
		_ENCx24_PHYWrite
		_ETH_Insert
 This function uses a non-reentrant model


 *************** function _ENCx24_BankselSPI *****************
 Defined at:
		line 61 in file "../../TCPIP Library/ethernet_drivers/encX24j600_spi.c"
 Parameters:    Size  Location     Type
  a               1    wreg     enum E6725
 Auto vars:     Size  Location     Type
  a               1    2[COMRAM] enum E6725
  bank            1    3[COMRAM] unsigned char 
 Return value:  Size  Location     Type
		None               void
 Registers used:
		wreg, status,2, status,0, cstack
 Tracked objects:
		On entry : 
		On exit  : 
		Unchanged: 
 Data sizes:     COMRAM   BANK0   BANK1   BANK2   BANK3   BANK4   BANK5   BANK6   BANK7   BANK8   BANK9  BANK10  BANK11  BANK12  BANK13  BANK14  BANK15
      Params:         0       0       0       0       0       0       0       0       0       0       0       0       0       0       0       0       0
      Locals:         2       0       0       0       0       0       0       0       0       0       0       0       0       0       0       0       0
      Temps:          0       0       0       0       0       0       0       0       0       0       0       0       0       0       0       0       0
      Totals:         2       0       0       0       0       0       0       0       0       0       0       0       0       0       0       0       0
Total ram usage:        2 bytes
 Hardware stack levels used:    1
 Hardware stack levels required when called:    4
 This function calls:
		_SPI_ExchangeByte
 This function is called by:
		_ENCx24_Read
		_ENCx24_Write
		_ENCx24_BFS
		_ENCx24_BFC
		_ETH_MACRead8
 This function uses a non-reentrant model


 *************** function _SPI_ExchangeByte *****************
 Defined at:
		line 55 in file "../board_support_package/picdem2_net/mssp_spi_master.c"
 Parameters:    Size  Location     Type
  v               1    wreg     unsigned char 
 Auto vars:     Size  Location     Type
  v               1    1[COMRAM] unsigned char 
 Return value:  Size  Location     Type
                  1    wreg      unsigned char 
 Registers used:
		wreg, status,2
 Tracked objects:
		On entry : 
		On exit  : 
		Unchanged: 
 Data sizes:     COMRAM   BANK0   BANK1   BANK2   BANK3   BANK4   BANK5   BANK6   BANK7   BANK8   BANK9  BANK10  BANK11  BANK12  BANK13  BANK14  BANK15
      Params:         0       0       0       0       0       0       0       0       0       0       0       0       0       0       0       0       0
      Locals:         1       0       0       0       0       0       0       0       0       0       0       0       0       0       0       0       0
      Temps:          0       0       0       0       0       0       0       0       0       0       0       0       0       0       0       0       0
      Totals:         1       0       0       0       0       0       0       0       0       0       0       0       0       0       0       0       0
Total ram usage:        1 bytes
 Hardware stack levels used:    1
 Hardware stack levels required when called:    3
 This function calls:
		Nothing
 This function is called by:
		_ETH_Init
		_ETH_NextPacketUpdate
		_ENCx24_BankselSPI
		_ENCx24_Read
		_ENCx24_Write
		_ENCx24_BFS
		_ENCx24_BFC
		_ETH_Read8
		_ETH_Read16
		_ETH_Read32
		_ETH_ReadBlock
		_ETH_Write8
		_ETH_Write16
		_ETH_Write32
		_ETH_WriteBlock
		_ETH_Insert
		_ETH_Set_TXRTS
		_ETH_SetPktDec
		_ETH_SetRXptr
		_ETH_MACRead8
 This function uses a non-reentrant model


 *************** function _DEMO_UDP_ClaimIPCheck *****************
 Defined at:
		line 46 in file "udp_demo.c"
 Parameters:    Size  Location     Type
		None
 Auto vars:     Size  Location     Type
  ret             1    2[COMRAM] unsigned char 
 Return value:  Size  Location     Type
		None               void
 Registers used:
		wreg, status,2, status,0
 Tracked objects:
		On entry : 
		On exit  : 
		Unchanged: 
 Data sizes:     COMRAM   BANK0   BANK1   BANK2   BANK3   BANK4   BANK5   BANK6   BANK7   BANK8   BANK9  BANK10  BANK11  BANK12  BANK13  BANK14  BANK15
      Params:         0       0       0       0       0       0       0       0       0       0       0       0       0       0       0       0       0
      Locals:         1       0       0       0       0       0       0       0       0       0       0       0       0       0       0       0       0
      Temps:          1       0       0       0       0       0       0       0       0       0       0       0       0       0       0       0       0
      Totals:         2       0       0       0       0       0       0       0       0       0       0       0       0       0       0       0       0
Total ram usage:        2 bytes
 Hardware stack levels used:    1
 Hardware stack levels required when called:    3
 This function calls:
		Nothing
 This function is called by:
		_DEMO_UDP_Recv
		_DEMO_UDP_Send
 This function uses a non-reentrant model


 *************** function _ADC_GetConversion *****************
 Defined at:
		line 106 in file "../board_support_package/picdem2_net/adc.c"
 Parameters:    Size  Location     Type
  channel         1    wreg     enum E6609
 Auto vars:     Size  Location     Type
  channel         1    4[COMRAM] enum E6609
 Return value:  Size  Location     Type
                  2    1[COMRAM] unsigned int 
 Registers used:
		wreg, status,2, status,0
 Tracked objects:
		On entry : 
		On exit  : 
		Unchanged: 
 Data sizes:     COMRAM   BANK0   BANK1   BANK2   BANK3   BANK4   BANK5   BANK6   BANK7   BANK8   BANK9  BANK10  BANK11  BANK12  BANK13  BANK14  BANK15
      Params:         2       0       0       0       0       0       0       0       0       0       0       0       0       0       0       0       0
      Locals:         1       0       0       0       0       0       0       0       0       0       0       0       0       0       0       0       0
      Temps:          1       0       0       0       0       0       0       0       0       0       0       0       0       0       0       0       0
      Totals:         4       0       0       0       0       0       0       0       0       0       0       0       0       0       0       0       0
Total ram usage:        4 bytes
 Hardware stack levels used:    1
 Hardware stack levels required when called:    3
 This function calls:
		Nothing
 This function is called by:
		_DEMO_UDP_MeasureTemp
		_DEMO_UDP_Send
 This function uses a non-reentrant model


 *************** function _DEMO_UDP_IPLockTimer *****************
 Defined at:
		line 68 in file "udp_demo.c"
 Parameters:    Size  Location     Type
		None
 Auto vars:     Size  Location     Type
		None
 Return value:  Size  Location     Type
		None               void
 Registers used:
		wreg, status,2, cstack
 Tracked objects:
		On entry : 
		On exit  : 
		Unchanged: 
 Data sizes:     COMRAM   BANK0   BANK1   BANK2   BANK3   BANK4   BANK5   BANK6   BANK7   BANK8   BANK9  BANK10  BANK11  BANK12  BANK13  BANK14  BANK15
      Params:         0       0       0       0       0       0       0       0       0       0       0       0       0       0       0       0       0
      Locals:         0       0       0       0       0       0       0       0       0       0       0       0       0       0       0       0       0
      Temps:          0       0       0       0       0       0       0       0       0       0       0       0       0       0       0       0       0
      Totals:         0       0       0       0       0       0       0       0       0       0       0       0       0       0       0       0       0
Total ram usage:        0 bytes
 Hardware stack levels used:    1
 Hardware stack levels required when called:    4
 This function calls:
		_DEMO_UDP_SetClaimIP
 This function is called by:
		_main
 This function uses a non-reentrant model


 *************** function _DEMO_UDP_SetClaimIP *****************
 Defined at:
		line 61 in file "udp_demo.c"
 Parameters:    Size  Location     Type
  claim_ip        1    wreg     unsigned char 
 Auto vars:     Size  Location     Type
  claim_ip        1    1[COMRAM] unsigned char 
 Return value:  Size  Location     Type
		None               void
 Registers used:
		wreg
 Tracked objects:
		On entry : 
		On exit  : 
		Unchanged: 
 Data sizes:     COMRAM   BANK0   BANK1   BANK2   BANK3   BANK4   BANK5   BANK6   BANK7   BANK8   BANK9  BANK10  BANK11  BANK12  BANK13  BANK14  BANK15
      Params:         0       0       0       0       0       0       0       0       0       0       0       0       0       0       0       0       0
      Locals:         1       0       0       0       0       0       0       0       0       0       0       0       0       0       0       0       0
      Temps:          0       0       0       0       0       0       0       0       0       0       0       0       0       0       0       0       0
      Totals:         1       0       0       0       0       0       0       0       0       0       0       0       0       0       0       0       0
Total ram usage:        1 bytes
 Hardware stack levels used:    1
 Hardware stack levels required when called:    3
 This function calls:
		Nothing
 This function is called by:
		_DEMO_UDP_IPLockTimer
		_DEMO_UDP_Recv
 This function uses a non-reentrant model


 *************** function _low_isr *****************
 Defined at:
		line 61 in file "main.c"
 Parameters:    Size  Location     Type
		None
 Auto vars:     Size  Location     Type
		None
 Return value:  Size  Location     Type
		None               void
 Registers used:
		None
 Tracked objects:
		On entry : 
		On exit  : 
		Unchanged: 
 Data sizes:     COMRAM   BANK0   BANK1   BANK2   BANK3   BANK4   BANK5   BANK6   BANK7   BANK8   BANK9  BANK10  BANK11  BANK12  BANK13  BANK14  BANK15
      Params:         0       0       0       0       0       0       0       0       0       0       0       0       0       0       0       0       0
      Locals:         0       0       0       0       0       0       0       0       0       0       0       0       0       0       0       0       0
      Temps:          1       0       0       0       0       0       0       0       0       0       0       0       0       0       0       0       0
      Totals:         1       0       0       0       0       0       0       0       0       0       0       0       0       0       0       0       0
Total ram usage:        1 bytes
 Hardware stack levels used:    1
 Hardware stack levels required when called:    2
 This function calls:
		Nothing
 This function is called by:
		Interrupt level 1
 This function uses a non-reentrant model


 *************** function _high_isr *****************
 Defined at:
		line 56 in file "main.c"
 Parameters:    Size  Location     Type
		None
 Auto vars:     Size  Location     Type
		None
 Return value:  Size  Location     Type
		None               void
 Registers used:
		wreg, status,2, status,0, cstack
 Tracked objects:
		On entry : 
		On exit  : 
		Unchanged: 
 Data sizes:     COMRAM   BANK0   BANK1   BANK2   BANK3   BANK4   BANK5   BANK6   BANK7   BANK8   BANK9  BANK10  BANK11  BANK12  BANK13  BANK14  BANK15
      Params:         0       0       0       0       0       0       0       0       0       0       0       0       0       0       0       0       0
      Locals:         0       0       0       0       0       0       0       0       0       0       0       0       0       0       0       0       0
      Temps:          0       0       0       0       0       0       0       0       0       0       0       0       0       0       0       0       0
      Totals:         0       0       0       0       0       0       0       0       0       0       0       0       0       0       0       0       0
Total ram usage:        0 bytes
 Hardware stack levels used:    1
 Hardware stack levels required when called:    1
 This function calls:
		_rtcc_handler
 This function is called by:
		Interrupt level 2
 This function uses a non-reentrant model


 *************** function _rtcc_handler *****************
 Defined at:
		line 122 in file "../board_support_package/picdem2_net/rtcc.c"
 Parameters:    Size  Location     Type
		None
 Auto vars:     Size  Location     Type
		None
 Return value:  Size  Location     Type
		None               void
 Registers used:
		wreg, status,2, status,0
 Tracked objects:
		On entry : 
		On exit  : 
		Unchanged: 
 Data sizes:     COMRAM   BANK0   BANK1   BANK2   BANK3   BANK4   BANK5   BANK6   BANK7   BANK8   BANK9  BANK10  BANK11  BANK12  BANK13  BANK14  BANK15
      Params:         0       0       0       0       0       0       0       0       0       0       0       0       0       0       0       0       0
      Locals:         0       0       0       0       0       0       0       0       0       0       0       0       0       0       0       0       0
      Temps:          0       0       0       0       0       0       0       0       0       0       0       0       0       0       0       0       0
      Totals:         0       0       0       0       0       0       0       0       0       0       0       0       0       0       0       0       0
Total ram usage:        0 bytes
 Hardware stack levels used:    1
 This function calls:
		Nothing
 This function is called by:
		_high_isr
 This function uses a non-reentrant model



MODULE INFORMATION

Module		Function		Class		Link	Load	Size
C:\Program Files (x86)\Microchip\xc8\v1.35\sources\common\printf.c
		_printf        		CODE           	62FE	0000	37

C:\Program Files (x86)\Microchip\xc8\v1.35\sources\common\printf.c estimated size: 37

udp_demo.c
		_DEMO_UDP_SetClaimIP		CODE           	6642	0000	9
		_DEMO_UDP_MeasureTemp		CODE           	64CC	0000	25
		_DEMO_UDP_IPLockTimer		CODE           	6540	0000	23
		_DEMO_UDP_ClaimIPCheck		CODE           	64B2	0000	27
		_DEMO_UDP_Send 		CODE           	5086	0000	217
		_DEMO_UDP_Recv 		CODE           	30B8	0000	885
		_DEMO_UDP_IdlePkt		CODE           	6208	0000	35

udp_demo.c estimated size: 1221

../board_support_package/picdem2_net/rtcc.c
		_rtcc_handler  		CODE           	62B0	0000	41
		_rtcc_init     		CODE           	604C	0000	57
		_time          		CODE           	5AA4	0000	85

../board_support_package/picdem2_net/rtcc.c estimated size: 183

../board_support_package/picdem2_net/uart.c
		_putch         		CODE           	6464	0000	27
		_uart_init     		CODE           	6514	0000	23

../board_support_package/picdem2_net/uart.c estimated size: 50

../board_support_package/picdem2_net/hardware.c
		_initHW        		CODE           	5F94	0000	63

../board_support_package/picdem2_net/hardware.c estimated size: 63

../../TCPIP Library/ethernet_drivers/encX24J600_driver.c
		_ETH_SendSystemReset		CODE           	58C0	0000	107
		_ETH_ResetReceiver		CODE           	5E94	0000	65
		_ETH_CheckLinkUp		CODE           	60EE	0000	53
		_ETH_Init      		CODE           	4D4E	0000	257
		_ETH_RxComputeChecksum		CODE           	5178	0000	171
		_ETH_NextPacketUpdate		CODE           	5850	0000	113
		_ETH_Flush     		CODE           	60BA	0000	53
		_ETH_Send      		CODE           	638A	0000	35
		_waitForDMA    		CODE           	0000	0000	1
		_ETH_WriteStart		CODE           	5AF8	0000	77
		_ETH_Copy      		CODE           	556A	0000	145
		_ETH_GetMAC    		CODE           	59F8	0000	75
		_ETH_ResetByteCount		CODE           	659E	0000	17
		_ETH_SaveRDPT  		CODE           	658E	0000	17
		_ETH_Dump      		CODE           	5DBE	0000	75
		_ETH_GetByteCount		CODE           	642A	0000	31
		_ETH_readLinkStatus		CODE           	0000	0000	1
		_ETH_TxComputeChecksum		CODE           	52E2	0000	161
		_ETH_EventHandler		CODE           	538A	0000	167

../../TCPIP Library/ethernet_drivers/encX24J600_driver.c estimated size: 1621

../../TCPIP Library/source/icmp.c
		_ICMP_Receive  		CODE           	5D28	0000	69
		_ICMP_EchoReply		CODE           	4AC0	0000	267

../../TCPIP Library/source/icmp.c estimated size: 336

../board_support_package/picdem2_net/led_driver.c
		_LED_Init      		CODE           	63AC	0000	33

../board_support_package/picdem2_net/led_driver.c estimated size: 33

../../TCPIP Library/source/syslog.c
		_SYSLOG_Init   		CODE           	6152	0000	47
		_SYSLOG_Write  		CODE           	62D8	0000	39

../../TCPIP Library/source/syslog.c estimated size: 86

C:\Program Files (x86)\Microchip\xc8\v1.35\sources\common\sprintf.c
		_sprintf       		CODE           	61DC	0000	45

C:\Program Files (x86)\Microchip\xc8\v1.35\sources\common\sprintf.c estimated size: 45

C:\Program Files (x86)\Microchip\xc8\v1.35\sources\common\memset.c
		_memset        		CODE           	6234	0000	43

C:\Program Files (x86)\Microchip\xc8\v1.35\sources\common\memset.c estimated size: 43

C:\Program Files (x86)\Microchip\xc8\v1.35\sources\common\lwmod.c
		___lwmod       		CODE           	5FD2	0000	63

C:\Program Files (x86)\Microchip\xc8\v1.35\sources\common\lwmod.c estimated size: 63

../../TCPIP Library/source/ipv4.c
		_IPV4_GetMyIP  		CODE           	657C	0000	19
		_IPV4_Send     		CODE           	5930	0000	99
		_IPV4_Packet   		CODE           	37E8	0000	485
		_IPV4_PseudoHeaderChecksum		CODE           	5604	0000	153
		_IPv4_Start    		CODE           	466E	0000	381
		_IPV4_Init     		CODE           	660C	0000	13

../../TCPIP Library/source/ipv4.c estimated size: 1150

../../TCPIP Library/ethernet_drivers/encX24j600_spi.c
		_ENCx24_PHYWrite		CODE           	6180	0000	39
		_ENCx24_BankselSPI		CODE           	5A4E	0000	87
		_ETH_Write8    		CODE           	6498	0000	27
		_ETH_Write32   		CODE           	6288	0000	41
		_ETH_Write16   		CODE           	6322	0000	27
		_ETH_Insert    		CODE           	5BA0	0000	85
		_ETH_Read8     		CODE           	6122	0000	49
		_ETH_Read32    		CODE           	599C	0000	93
		_ETH_Read16    		CODE           	5CDC	0000	63
		_ENCx24_BFC    		CODE           	5F54	0000	65
		_ENCx24_BFS    		CODE           	5F14	0000	65
		_ENCx24_Read   		CODE           	5E08	0000	75
		_ETH_WriteBlock		CODE           	5B4C	0000	85
		_ETH_ReadBlock 		CODE           	5734	0000	147
		_ENCx24_Write  		CODE           	5E52	0000	67
		_ETH_MACRead8  		CODE           	6010	0000	61
		_ETH_SetRXptr  		CODE           	64E4	0000	25
		_ENCx24_PhyRead		CODE           	5ED4	0000	65
		_ETH_Set_TXRTS 		CODE           	6618	0000	13
		_ETH_SetPktDec 		CODE           	6600	0000	13

../../TCPIP Library/ethernet_drivers/encX24j600_spi.c estimated size: 1192

C:\Program Files (x86)\Microchip\xc8\v1.35\sources\common\doprnt.c
		__doprnt       		CODE           	3AF2	0000	595

C:\Program Files (x86)\Microchip\xc8\v1.35\sources\common\doprnt.c estimated size: 595

../../TCPIP Library/source/udpv4.c
		_UDP_Receive   		CODE           	4F7E	0000	235
		_UDP_GetDestPort		CODE           	6638	0000	11
		_UDP_Write8    		CODE           	0000	0000	1
		_UDP_Write32   		CODE           	0000	0000	1
		_UDP_Write16   		CODE           	0000	0000	1
		_UDP_Read8     		CODE           	0000	0000	1
		_UDP_WriteBlock		CODE           	0000	0000	1
		_UDP_Send      		CODE           	57C6	0000	113
		_UDP_ReadBlock 		CODE           	6556	0000	21
		_UDP_GetDestIP 		CODE           	656A	0000	19
		_UDP_Start     		CODE           	5BF4	0000	79

../../TCPIP Library/source/udpv4.c estimated size: 483

../../TCPIP Library/source/dhcp_client.c
		_DHCP_Handler  		CODE           	3DE2	0000	587
		_DHCP_Request  		CODE           	44BC	0000	393
		_DHCP_WriteZeros		CODE           	64FC	0000	25
		_DHCP_Manage   		CODE           	569C	0000	141

../../TCPIP Library/source/dhcp_client.c estimated size: 1146

shared
		PL268          		CODE           	2B64	0000	27
		PL458          		CODE           	2C86	0000	11
		PL496          		CODE           	592A	0000	7
		PL178          		CODE           	23D6	0000	11
		PL368          		CODE           	3064	0000	15
		_dhcpName      		SMALLCONST     	1013	0000	22
		PL278          		CODE           	3A9A	0000	17
		PL468          		CODE           	3DD8	0000	11
		PL200          		CODE           	3762	0000	41
		PL188          		CODE           	240E	0000	19
		PL378          		CODE           	24EA	0000	11
		PL110          		CODE           	2210	0000	35
		PL300          		CODE           	5992	0000	11
		PL288          		CODE           	4BEA	0000	25
		PL478          		CODE           	5B44	0000	9
		PL210          		CODE           	2452	0000	11
		PL400          		CODE           	641E	0000	13
		PL198          		CODE           	300C	0000	41
		PL388          		CODE           	2512	0000	11
		PL120          		CODE           	22A6	0000	27
		PL310          		CODE           	4488	0000	19
		PL298          		CODE           	5222	0000	11
		PL488          		CODE           	4E6A	0000	7
		PL220          		CODE           	378A	0000	21
		PL410          		CODE           	349C	0000	13
		PL398          		CODE           	4A9E	0000	13
		PL130          		CODE           	2F8C	0000	33
		PL320          		CODE           	402C	0000	19
		PL498          		CODE           	54C8	0000	7
		PL230          		CODE           	379E	0000	29
		PL420          		CODE           	3072	0000	11
		_macAddress    		SMALLCONST     	0000	0000	0
		PL140          		CODE           	4466	0000	11
		PL330          		CODE           	247C	0000	11
		PL202          		CODE           	243A	0000	7
		PL240          		CODE           	3034	0000	27
		PL430          		CODE           	307C	0000	11
		_dpowers       		SMALLCONST     	1001	0000	11
		PL112          		CODE           	2232	0000	71
		PL302          		CODE           	3DA8	0000	15
		PL150          		CODE           	2356	0000	11
		PL340          		CODE           	2490	0000	11
		PL212          		CODE           	4470	0000	11
		PL402          		CODE           	4AAA	0000	13
		PL250          		CODE           	245C	0000	15
		PL440          		CODE           	4E58	0000	11
		PL122          		CODE           	22C0	0000	13
		PL312          		CODE           	2BD8	0000	19
		PL160          		CODE           	237A	0000	27
		PL350          		CODE           	24AE	0000	11
		PL222          		CODE           	5A42	0000	13
		PL412          		CODE           	4D42	0000	13
		PL260          		CODE           	2B16	0000	27
		PL450          		CODE           	4E62	0000	9
		PL132          		CODE           	2316	0000	29
		PL322          		CODE           	5728	0000	13
		PL170          		CODE           	23CA	0000	13
		PL360          		CODE           	2C38	0000	15
		PL232          		CODE           	2AAE	0000	9
		PL422          		CODE           	2C74	0000	11
		PL270          		CODE           	2B7E	0000	27
		PL460          		CODE           	4C0C	0000	11
		PL142          		CODE           	2344	0000	9
		PL332          		CODE           	2C0E	0000	11
		PL180          		CODE           	23E0	0000	11
		PL370          		CODE           	5D1A	0000	15
		PL204          		CODE           	2440	0000	19
		PL242          		CODE           	2AB6	0000	29
		PL432          		CODE           	3086	0000	11
		PL280          		CODE           	2BB2	0000	25
		PL470          		CODE           	3AD4	0000	11
		_UDP_CallBackTable		SMALLCONST     	1028	0000	16
		PL114          		CODE           	2278	0000	11
		PL304          		CODE           	427C	0000	15
		PL152          		CODE           	39CC	0000	97
		PL342          		CODE           	449A	0000	11
		PL190          		CODE           	2A82	0000	27
		PL380          		CODE           	24F4	0000	11
		PL214          		CODE           	3468	0000	11
		PL404          		CODE           	4E4E	0000	11
		PL252          		CODE           	2AD2	0000	15
		PL442          		CODE           	2530	0000	11
		PL290          		CODE           	37D4	0000	11
		PL480          		CODE           	44B2	0000	11
		PL124          		CODE           	22CC	0000	35
		PL314          		CODE           	2BEA	0000	19
		PL162          		CODE           	2A74	0000	15
		PL352          		CODE           	24B8	0000	11
		PL390          		CODE           	2C54	0000	11
		__initialization		CODE           	6084	0000	45
		PL224          		CODE           	4BCA	0000	33
		PL414          		CODE           	4F74	0000	11
		PL262          		CODE           	4A56	0000	27
		PL452          		CODE           	37DE	0000	11
		PL490          		CODE           	5D6C	0000	9
		PL134          		CODE           	2332	0000	19
		PL324          		CODE           	3486	0000	13
		PL172          		CODE           	3446	0000	35
		PL362          		CODE           	515E	0000	15
		PL234          		CODE           	3D78	0000	19
		PL424          		CODE           	3ACA	0000	11
		PL272          		CODE           	3A80	0000	27
		PL462          		CODE           	622A	0000	11
		PL144          		CODE           	4262	0000	27
		PL334          		CODE           	2C18	0000	17
		PL182          		CODE           	4A20	0000	55
		PL372          		CODE           	3DB6	0000	15
		PL206          		CODE           	3A2C	0000	41
		PL244          		CODE           	3A66	0000	27
		PL434          		CODE           	3090	0000	11
		PL282          		CODE           	3D98	0000	9
		PL472          		CODE           	3ADE	0000	11
		PL116          		CODE           	2282	0000	37
		PL306          		CODE           	2BCA	0000	15
		PL154          		CODE           	2FAC	0000	97
		PL344          		CODE           	249A	0000	11
		PL192          		CODE           	3D6C	0000	13
		PL382          		CODE           	24FE	0000	11
		PL216          		CODE           	3472	0000	11
		PL406          		CODE           	633C	0000	11
		PL254          		CODE           	37BA	0000	27
		PL444          		CODE           	309A	0000	11
		PL292          		CODE           	4A88	0000	23
		PL482          		CODE           	30AE	0000	11
		PL126          		CODE           	4944	0000	27
		PL316          		CODE           	2BFC	0000	19
		PL164          		CODE           	2394	0000	15
		PL354          		CODE           	24C2	0000	17
		PL392          		CODE           	251C	0000	11
		_hexpowers     		SMALLCONST     	100B	0000	9
		PL226          		CODE           	5068	0000	11
		PL416          		CODE           	3AC0	0000	11
		PL264          		CODE           	2B30	0000	27
		PL454          		CODE           	2C7E	0000	9
		PL492          		CODE           	2C90	0000	9
		PL136          		CODE           	4446	0000	33
		PL326          		CODE           	2472	0000	11
		PL174          		CODE           	3D44	0000	17
		PL364          		CODE           	44A4	0000	15
		PL236          		CODE           	4644	0000	19
		PL426          		CODE           	2526	0000	11
		PL274          		CODE           	2B98	0000	27
		PL464          		CODE           	4AB6	0000	11
		_broadcastMAC  		SMALLCONST     	1037	0000	7
		PL146          		CODE           	234C	0000	11
		PL336          		CODE           	4656	0000	11
		PL184          		CODE           	23EA	0000	19
		PL374          		CODE           	4660	0000	15
		PL208          		CODE           	2A9C	0000	11
		PL246          		CODE           	3D8A	0000	15
		PL436          		CODE           	3DC4	0000	11
		PL284          		CODE           	3DA0	0000	9
		PL474          		CODE           	3AE8	0000	11
		PL118          		CODE           	2A08	0000	25
		PL308          		CODE           	5072	0000	21
		PL156          		CODE           	2A20	0000	85
		PL346          		CODE           	4C02	0000	11
		PL194          		CODE           	2420	0000	9
		PL384          		CODE           	2508	0000	11
		PL218          		CODE           	347C	0000	11
		PL408          		CODE           	516C	0000	13
		PL256          		CODE           	2AE0	0000	29
		PL446          		CODE           	47EA	0000	11
		PL294          		CODE           	3AAA	0000	23
		PL484          		CODE           	253A	0000	11
		PL128          		CODE           	22EE	0000	41
		PL318          		CODE           	246A	0000	9
		PL166          		CODE           	23A2	0000	15
		PL356          		CODE           	24D2	0000	11
		PL394          		CODE           	428A	0000	11
		PL228          		CODE           	2AA6	0000	9
		PL418          		CODE           	2C6A	0000	11
		PL266          		CODE           	2B4A	0000	27
		PL456          		CODE           	54C2	0000	7
		PL494          		CODE           	403E	0000	9
		PL138          		CODE           	342C	0000	27
		PL328          		CODE           	555A	0000	17
		PL176          		CODE           	3D54	0000	25
		PL366          		CODE           	2C46	0000	15
		PL238          		CODE           	3A54	0000	19
		PL428          		CODE           	61A6	0000	9
		PL276          		CODE           	5836	0000	27
		PL466          		CODE           	3DCE	0000	11
		PL148          		CODE           	36F0	0000	115
		PL338          		CODE           	2486	0000	11
		PL186          		CODE           	23FC	0000	19
		PL376          		CODE           	24DC	0000	15
		PL248          		CODE           	447A	0000	15
		PL438          		CODE           	55FA	0000	11
		PL286          		CODE           	4A70	0000	25
		PL476          		CODE           	522C	0000	11
		PL158          		CODE           	2360	0000	27
		PL348          		CODE           	24A4	0000	11
		PL196          		CODE           	2428	0000	19
		PL386          		CODE           	3492	0000	11
		PL258          		CODE           	2AFC	0000	27
		PL448          		CODE           	30A4	0000	11
		PL296          		CODE           	304E	0000	23
		PL486          		CODE           	5382	0000	9
		PL168          		CODE           	23B0	0000	27
		PL358          		CODE           	2C28	0000	17
		PL396          		CODE           	2C5E	0000	13

shared estimated size: 3727

../board_support_package/picdem2_net/adc.c
		_ADC_Initialize		CODE           	652A	0000	23
		_ADC_GetConversion		CODE           	61AE	0000	47

../board_support_package/picdem2_net/adc.c estimated size: 70

../../TCPIP Library/source/tcpv4.c
		_TCP_FiniteStateMachine		CODE           	10B4	0000	4445
		_TCP_ParseTCPOptions		CODE           	4E70	0000	261
		_TCB_Reset     		CODE           	47F4	0000	337
		_TCP_Init      		CODE           	65D8	0000	15
		_TCP_Snd       		CODE           	2544	0000	1221
		_TCP_PayloadSave		CODE           	4294	0000	435
		_TCP_Recv      		CODE           	2C98	0000	757
		_TCP_Update    		CODE           	4046	0000	541

../../TCPIP Library/source/tcpv4.c estimated size: 8012

C:\Program Files (x86)\Microchip\xc8\v1.35\sources\common\memcmp.c
		_memcmp        		CODE           	5C90	0000	77

C:\Program Files (x86)\Microchip\xc8\v1.35\sources\common\memcmp.c estimated size: 77

C:\Program Files (x86)\Microchip\xc8\v1.35\sources\common\lwdiv.c
		___lwdiv       		CODE           	5D74	0000	75

C:\Program Files (x86)\Microchip\xc8\v1.35\sources\common\lwdiv.c estimated size: 75

../board_support_package/picdem2_net/lcd_hw.c
		_lcd_write_data		CODE           	63CC	0000	33
		_lcd_write_ctrl		CODE           	63EC	0000	33
		_lcd_busy      		CODE           	662E	0000	11
		_lcd_init_pins 		CODE           	6624	0000	11

../board_support_package/picdem2_net/lcd_hw.c estimated size: 88

../../TCPIP Library/source/arpv4.c
		_ARPV4_Packet  		CODE           	34A8	0000	585
		_ARPV4_Init    		CODE           	647E	0000	27
		_ARPV4_Lookup  		CODE           	5C42	0000	79
		_ARPV4_Update  		CODE           	625E	0000	43
		_ARPV4_Request 		CODE           	495E	0000	195

../../TCPIP Library/source/arpv4.c estimated size: 929

main.c
		_main          		CODE           	4C16	0000	301
		_high_isr      		CODE           	0008	0000	15
		_low_isr       		CODE           	0018	0000	17

main.c estimated size: 333

../board_support_package/picdem2_net/lcd.c
		_lcd_puts      		CODE           	640C	0000	19
		_lcd_putch     		CODE           	6448	0000	29
		_lcd_clear     		CODE           	6346	0000	35
		_lcd_goto1     		CODE           	65CA	0000	15
		_lcd_goto2     		CODE           	65BC	0000	15
		_lcd_init      		CODE           	5430	0000	147

../board_support_package/picdem2_net/lcd.c estimated size: 260

../board_support_package/picdem2_net/mssp_spi_master.c
		_SPI_ExchangeByte		CODE           	65E6	0000	15
		_spi_init      		CODE           	65F4	0000	13

../board_support_package/picdem2_net/mssp_spi_master.c estimated size: 28

../../TCPIP Library/source/network.c
		_Network_Read  		CODE           	5236	0000	173
		_Network_Init  		CODE           	6368	0000	35
		_Network_WaitForLink		CODE           	65AE	0000	15
		_Network_Manage		CODE           	54CE	0000	141

../../TCPIP Library/source/network.c estimated size: 364

