Microchip MPLAB XC8 Compiler V1.35 ()

Linker command line:

--edf=C:\Program Files (x86)\Microchip\xc8\v1.35\dat\en_msgs.txt \
  --msgdisable=1467:Off; -cs \
  -h+dist/PICDEM.net2_ETH97J60/production\tcpClientDEMO.X.production.sym \
  --cmf=dist/PICDEM.net2_ETH97J60/production\tcpClientDEMO.X.production.cmf \
  -z -Q18F97J60 -oC:\Users\c16008\AppData\Local\Temp\s7to.2 \
  -Mdist/PICDEM.net2_ETH97J60/production/tcpClientDEMO.X.production.map -E1 \
  -ver=XC8 -ASTACK=03B8h-0e7dh -pstack=STACK -ACODE=00h-01FFF7h \
  -ACONST=00h-01FFF7h -ASMALLCONST=01000h-010FFhx495,01FF00h-01FFF7h \
  -AMEDIUMCONST=01000h-0FFFFh,011000h-01FFF7h -ACOMRAM=01h-05Fh \
  -AABS1=00h-0E7Fh,0F00h-0F5Fh -ABIGRAM=01h-0E7Fh,0F00h-0F5Fh \
  -ARAM=060h-0FFh,0100h-01FFhx13,0E00h-0E7Fh,0F00h-0F5Fh -ABANK0=060h-0FFh \
  -ABANK1=0100h-01FFh -ABANK2=0200h-02FFh -ABANK3=0300h-03FFh \
  -ABANK4=0400h-04FFh -ABANK5=0500h-05FFh -ABANK6=0600h-06FFh \
  -ABANK7=0700h-07FFh -ABANK8=0800h-08FFh -ABANK9=0900h-09FFh \
  -ABANK10=0A00h-0AFFh -ABANK11=0B00h-0BFFh -ABANK12=0C00h-0CFFh \
  -ABANK13=0D00h-0DFFh -ABANK14=0E00h-0E7Fh -ABANK15=0F00h-0F5Fh \
  -ASFR=0E80h-0EFFh,0F60h-0FFFh \
  -preset_vec=00h,intcode=08h,intcodelo=018h,powerup,init,end_init \
  -pramtop=01000h -psmallconst=SMALLCONST -pmediumconst=MEDIUMCONST \
  -pconst=CONST -AFARRAM=00h-00h -ACONFIG=01FFF8h-01FFFDh -pconfig=CONFIG \
  -pjflash_buffer=01F800h \
  -prdata=COMRAM,nvrram=COMRAM,nvbit=COMRAM,rbss=COMRAM,rbit=COMRAM \
  -pfarbss=FARRAM,fardata=FARRAM,nvFARRAM=FARRAM \
  -pintsave_regs=BIGRAM,bigbss=BIGRAM,bigdata=BIGRAM -pbss=RAM \
  -pidata=CODE,irdata=CODE,ibigdata=CODE,ifardata=CODE -prparam=COMRAM \
  C:\Users\c16008\AppData\Local\Temp\s7to.obj \
  dist/PICDEM.net2_ETH97J60/production\tcpClientDEMO.X.production.obj 

Object code version is 3.11

Machine type is 18F97J60

Call graph: (short form)




                Name                               Link     Load   Length Selector   Space Scale
C:\Users\c16008\AppData\Local\Temp\s7to.obj
                end_init                             3A       3A        4        C       0
                reset_vec                             0        0        4        0       0
                config                            1FFF8    1FFF8        6    1FFF8       0
dist/PICDEM.net2_ETH97J60/production\tcpClientDEMO.X.production.obj
                intcodelo                            18       18       22        C       0
                intcode                               8        8        6        4       0
                temp                                 49       49        1        1       1
                smallconst                         1000     1000       FA      800       0
                text112                            6442     6442       28      87D       0
                intcode_body                       673A     673A        8      87D       0
                text109                            53E6     53E6       AA      87D       0
                text107                            6344     6344       2E      87D       0
                text106                            6224     6224       36      87D       0
                text104                            6316     6316       2E      87D       0
                text103                            47C6     47C6      16A      87D       0
                text101                            5B92     5B92       64      87D       0
                text99                             60CC     60CC       40      87D       0
                text98                             61EE     61EE       36      87D       0
                text97                             5490     5490       A0      87D       0
                text96                             5790     5790       8E      87D       0
                text95                             5B22     5B22       70      87D       0
                text94                             5DE6     5DE6       4E      87D       0
                text93                             61B8     61B8       36      87D       0
                text92                             5F64     5F64       4C      87D       0
                text91                             6730     6730        A      87D       0
                text90                             4D14     4D14      120      87D       0
                text89                             4930     4930      164      87D       0
                text88                             66E4     66E4        E      87D       0
                text87                             664A     664A       1A      87D       0
                text86                             6726     6726        A      87D       0
                text85                             4644     4644      182      87D       0
                text84                             2598     2598      72A      87D       0
                text83                             427C     427C      216      87D       0
                text82                             10FA     10FA     149E      87D       0
                text81                             59B8     59B8       7E      87D       0
                text80                             64DC     64DC       26      87D       0
                text79                             51DE     51DE       B2      87D       0
                text78                             5AAC     5AAC       76      87D       0
                text77                             5A36     5A36       76      87D       0
                text76                             5666     5666       98      87D       0
                text75                             63F0     63F0       2A      87D       0
                text74                             6042     6042       48      87D       0
                text73                             56FE     56FE       92      87D       0
                text72                             671C     671C        A      87D       0
                text71                             6566     6566       20      87D       0
                text70                             66D6     66D6        E      87D       0
                text69                             6546     6546       20      87D       0
                text68                             65FA     65FA       1C      87D       0
                text67                             65A4     65A4       1E      87D       0
                text66                             63C6     63C6       2A      87D       0
                text65                             5FB0     5FB0       4A      87D       0
                text64                             610C     610C       3E      87D       0
                text63                             64B6     64B6       26      87D       0
                text62                             65DE     65DE       1C      87D       0
                text61                             6630     6630       1A      87D       0
                text60                             2CC2     2CC2      482      87D       0
                text59                             62E8     62E8       2E      87D       0
                text58                             641A     641A       28      87D       0
                text57                             5CA4     5CA4       54      87D       0
                text56                             3B50     3B50      26E      87D       0
                text55                             66A8     66A8       12      87D       0
                text54                             6616     6616       1A      87D       0
                text52                             533C     533C       AA      87D       0
                text50                             625A     625A       32      87D       0
                text49                             6742     6742        4      87D       0
                text48                             5D48     5D48       50      87D       0
                text47                             4BE8     4BE8      12C      87D       0
                text46                             6712     6712        A      87D       0
                text45                             65C2     65C2       1C      87D       0
                text44                             6490     6490       26      87D       0
                text43                             639C     639C       2A      87D       0
                text42                             6664     6664       18      87D       0
                text41                             6586     6586       1E      87D       0
                text40                             581E     581E       8C      87D       0
                text39                             5D98     5D98       4E      87D       0
                text38                             4492     4492      1B2      87D       0
                text37                             58AA     58AA       8A      87D       0
                text36                             5F18     5F18       4C      87D       0
                text35                             3516     3516      342      87D       0
                text34                             5CF8     5CF8       50      87D       0
                text33                             5C4E     5C4E       56      87D       0
                text32                             5FFA     5FFA       48      87D       0
                text31                             6502     6502       24      87D       0
                text30                             646A     646A       26      87D       0
                text29                             5126     5126       B8      87D       0
                text28                             6708     6708        A      87D       0
                text27                             4A94     4A94      154      87D       0
                text26                             5ECC     5ECC       4C      87D       0
                text25                             55CE     55CE       98      87D       0
                text24                             62BA     62BA       2E      87D       0
                text23                             608A     608A       42      87D       0
                text22                             6372     6372       2A      87D       0
                text21                             4E34     4E34      10E      87D       0
                text20                             3144     3144      3D2      87D       0
                text19                             5BF6     5BF6       58      87D       0
                text18                             5E80     5E80       4C      87D       0
                text17                             3DBE     3DBE      266      87D       0
                text16                             504E     504E       D8      87D       0
                text15                             3858     3858      2F8      87D       0
                text14                             5290     5290       AC      87D       0
                text13                             4024     4024      258      87D       0
                text12                             5934     5934       84      87D       0
                text11                             66C8     66C8        E      87D       0
                text10                             628C     628C       2E      87D       0
                text9                              6692     6692       16      87D       0
                text8                              6526     6526       20      87D       0
                text7                              66FE     66FE        A      87D       0
                text6                              5530     5530       9E      87D       0
                text5                              614A     614A       38      87D       0
                text4                              66F2     66F2        C      87D       0
                text3                              667C     667C       16      87D       0
                text2                              6182     6182       36      87D       0
                text1                              66BA     66BA        E      87D       0
                text0                              4F42     4F42      10C      87D       0
                cstackCOMRAM                          1        1       33        1       1
                cstackBANK0                          60       60       9F       60       1
                cstackBANK1                         100      100       BE      100       1
                cstackBANK2                         2BB      2BB       2D      200       1
                bssBANK3                            300      300       B8      300       1
                bssBANK2                            200      200       BB      200       1
                bssBANK1                            1BE      1BE       2F      100       1
                dataBANK0                            FF       FF        1       60       1
                bssCOMRAM                            34       34       15        1       1
                cinit                              5E34     5E34       4C      87D       0
                nvBANK2                             2E8      2E8        8      200       1
                idataBANK0                         6746     6746        1      87D       0

TOTAL           Name                               Link     Load   Length     Space
        CLASS   STACK          

        CLASS   CODE           
                end_init                             3A       3A        4         0
                intcodelo                            18       18       22         0
                intcode                               8        8        6         0
                reset_vec                             0        0        4         0
                text112                            6442     6442       28         0
                intcode_body                       673A     673A        8         0
                text109                            53E6     53E6       AA         0
                text107                            6344     6344       2E         0
                text106                            6224     6224       36         0
                text104                            6316     6316       2E         0
                text103                            47C6     47C6      16A         0
                text101                            5B92     5B92       64         0
                text99                             60CC     60CC       40         0
                text98                             61EE     61EE       36         0
                text97                             5490     5490       A0         0
                text96                             5790     5790       8E         0
                text95                             5B22     5B22       70         0
                text94                             5DE6     5DE6       4E         0
                text93                             61B8     61B8       36         0
                text92                             5F64     5F64       4C         0
                text91                             6730     6730        A         0
                text90                             4D14     4D14      120         0
                text89                             4930     4930      164         0
                text88                             66E4     66E4        E         0
                text87                             664A     664A       1A         0
                text86                             6726     6726        A         0
                text85                             4644     4644      182         0
                text84                             2598     2598      72A         0
                text83                             427C     427C      216         0
                text82                             10FA     10FA     149E         0
                text81                             59B8     59B8       7E         0
                text80                             64DC     64DC       26         0
                text79                             51DE     51DE       B2         0
                text78                             5AAC     5AAC       76         0
                text77                             5A36     5A36       76         0
                text76                             5666     5666       98         0
                text75                             63F0     63F0       2A         0
                text74                             6042     6042       48         0
                text73                             56FE     56FE       92         0
                text72                             671C     671C        A         0
                text71                             6566     6566       20         0
                text70                             66D6     66D6        E         0
                text69                             6546     6546       20         0
                text68                             65FA     65FA       1C         0
                text67                             65A4     65A4       1E         0
                text66                             63C6     63C6       2A         0
                text65                             5FB0     5FB0       4A         0
                text64                             610C     610C       3E         0
                text63                             64B6     64B6       26         0
                text62                             65DE     65DE       1C         0
                text61                             6630     6630       1A         0
                text60                             2CC2     2CC2      482         0
                text59                             62E8     62E8       2E         0
                text58                             641A     641A       28         0
                text57                             5CA4     5CA4       54         0
                text56                             3B50     3B50      26E         0
                text55                             66A8     66A8       12         0
                text54                             6616     6616       1A         0
                text52                             533C     533C       AA         0
                text50                             625A     625A       32         0
                text49                             6742     6742        4         0
                text48                             5D48     5D48       50         0
                text47                             4BE8     4BE8      12C         0
                text46                             6712     6712        A         0
                text45                             65C2     65C2       1C         0
                text44                             6490     6490       26         0
                text43                             639C     639C       2A         0
                text42                             6664     6664       18         0
                text41                             6586     6586       1E         0
                text40                             581E     581E       8C         0
                text39                             5D98     5D98       4E         0
                text38                             4492     4492      1B2         0
                text37                             58AA     58AA       8A         0
                text36                             5F18     5F18       4C         0
                text35                             3516     3516      342         0
                text34                             5CF8     5CF8       50         0
                text33                             5C4E     5C4E       56         0
                text32                             5FFA     5FFA       48         0
                text31                             6502     6502       24         0
                text30                             646A     646A       26         0
                text29                             5126     5126       B8         0
                text28                             6708     6708        A         0
                text27                             4A94     4A94      154         0
                text26                             5ECC     5ECC       4C         0
                text25                             55CE     55CE       98         0
                text24                             62BA     62BA       2E         0
                text23                             608A     608A       42         0
                text22                             6372     6372       2A         0
                text21                             4E34     4E34      10E         0
                text20                             3144     3144      3D2         0
                text19                             5BF6     5BF6       58         0
                text18                             5E80     5E80       4C         0
                text17                             3DBE     3DBE      266         0
                text16                             504E     504E       D8         0
                text15                             3858     3858      2F8         0
                text14                             5290     5290       AC         0
                text13                             4024     4024      258         0
                text12                             5934     5934       84         0
                text11                             66C8     66C8        E         0
                text10                             628C     628C       2E         0
                text9                              6692     6692       16         0
                text8                              6526     6526       20         0
                text7                              66FE     66FE        A         0
                text6                              5530     5530       9E         0
                text5                              614A     614A       38         0
                text4                              66F2     66F2        C         0
                text3                              667C     667C       16         0
                text2                              6182     6182       36         0
                text1                              66BA     66BA        E         0
                text0                              4F42     4F42      10C         0
                cinit                              5E34     5E34       4C         0
                idataBANK0                         6746     6746        1         0

        CLASS   CONST          

        CLASS   SMALLCONST     
                smallconst                         1000     1000       FA         0

        CLASS   MEDIUMCONST    

        CLASS   COMRAM         
                temp                                 49       49        1         1
                cstackCOMRAM                          1        1       33         1
                bssCOMRAM                            34       34       15         1

        CLASS   ABS1           
                abs_s1                              E7E      E7E        2         1

        CLASS   BIGRAM         

        CLASS   RAM            

        CLASS   BANK0          
                cstackBANK0                          60       60       9F         1
                dataBANK0                            FF       FF        1         1

        CLASS   BANK1          
                cstackBANK1                         100      100       BE         1
                bssBANK1                            1BE      1BE       2F         1

        CLASS   BANK2          
                cstackBANK2                         2BB      2BB       2D         1
                bssBANK2                            200      200       BB         1
                nvBANK2                             2E8      2E8        8         1

        CLASS   BANK3          
                bssBANK3                            300      300       B8         1

        CLASS   BANK4          

        CLASS   BANK5          

        CLASS   BANK6          

        CLASS   BANK7          

        CLASS   BANK8          

        CLASS   BANK9          

        CLASS   BANK10         

        CLASS   BANK11         

        CLASS   BANK12         

        CLASS   BANK13         

        CLASS   BANK14         

        CLASS   BANK15         

        CLASS   SFR            

        CLASS   FARRAM         

        CLASS   CONFIG         
                config                            1FFF8    1FFF8        6         0

        CLASS   IDLOC          



SEGMENTS        Name                           Load    Length   Top    Selector   Space  Class

                reset_vec                      000000  000004  000004         0       0  CODE    
                cstackCOMRAM                   000001  000049  00004A         1       1  COMRAM  
                intcode                        000008  000006  00000E         4       0  CODE    
                intcodelo                      000018  000026  00003E         C       0  CODE    
                cstackBANK0                    000060  0000A0  000100        60       1  BANK0   
                cstackBANK1                    000100  0000ED  0001ED       100       1  BANK1   
                bssBANK2                       000200  0000F0  0002F0       200       1  BANK2   
                bssBANK3                       000300  0000B8  0003B8       300       1  BANK3   
                smallconst                     001000  0000FA  0010FA       800       0  SMALLCON
                text82                         0010FA  00564D  006747       87D       0  CODE    
                config                         01FFF8  000006  01FFFE     1FFF8       0  CONFIG  


UNUSED ADDRESS RANGES

        Name                Unused          Largest block    Delta
        BANK1            001ED-001FF              13
        BANK10           00A00-00AFF             100
        BANK11           00B00-00BFF             100
        BANK12           00C00-00CFF             100
        BANK13           00D00-00DFF             100
        BANK14           00E00-00E7D              7E
        BANK15           00F00-00F5F              60
        BANK2            002F0-002FF              10
        BANK3            003B8-003FF              48
        BANK4            00400-004FF             100
        BANK5            00500-005FF             100
        BANK6            00600-006FF             100
        BANK7            00700-007FF             100
        BANK8            00800-008FF             100
        BANK9            00900-009FF             100
        BIGRAM           0004A-0005F              16
                         001ED-001FF              13
                         002F0-002FF              10
                         003B8-00E7D             AC6
                         00F00-00F5F              60
        CODE             00004-00007               4
                         0000E-00017               A
                         0003E-00FFF             FC2
                         06747-1FFF7           198B1
        COMRAM           0004A-0005F              16
        CONST            00004-00007               4
                         0000E-00017               A
                         0003E-00FFF             FC2
                         06747-1FFF7           198B1
        MEDIUMCONST      06747-0FFFF            98B9
                         11000-1FFF7            EFF8
        RAM              001ED-001FF              13
                         002F0-002FF              10
                         003B8-00E7D             100
                         00F00-00F5F              60
        SFR              00E80-00EFF              80
                         00F60-00FFF              A0
        SMALLCONST       06747-1FFF7             100
        STACK            003B8-00E7D             AC6

                                  Symbol Table

?_ADC_GetConversion                  cstackCOMRAM  00017
?_ARPV4_Lookup                       cstackCOMRAM  00017
?_ETH_ComputeChecksum                cstackCOMRAM  00017
?_ETH_GetByteCount                   cstackCOMRAM  00017
?_ETH_Read16                         cstackCOMRAM  00017
?_ETH_Read32                         cstackCOMRAM  00017
?_ETH_ReadBlock                      cstackCOMRAM  00017
?_ETH_RxComputeChecksum              cstackCOMRAM  00025
?_ETH_TxComputeChecksum              cstackCOMRAM  00025
?_ETH_readLinkStatus                 cstackCOMRAM  00022
?_IPV4_GetMyIP                       cstackCOMRAM  00017
?_IPV4_PseudoHeaderChecksum          cstackCOMRAM  00017
?_PHY_Read                           cstackCOMRAM  00019
?_TCP_GetReceivedData                cstackCOMRAM  0001F
?___lwdiv                            cstackCOMRAM  00017
?___lwmod                            cstackCOMRAM  0001E
?___wmul                             cstackCOMRAM  00017
?__doprnt                            cstackCOMRAM  00023
?_memcmp                             cstackCOMRAM  00017
?_printf                             cstackCOMRAM  00029
?_sprintf                            cstackCOMRAM  00029
?_strlen                             cstackCOMRAM  00017
?_time                               cstackCOMRAM  00017
?i1_ETH_readLinkStatus               cstackCOMRAM  0000C
?i1_PHY_Read                         cstackCOMRAM  00003
ADC_GetConversion@channel            cstackCOMRAM  0001A
ARPV4_Init@x                         cstackCOMRAM  00017
ARPV4_Lookup@entry_pointer           cstackCOMRAM  0001F
ARPV4_Lookup@ip_address              cstackCOMRAM  00017
ARPV4_Lookup@x                       cstackCOMRAM  00021
ARPV4_Packet@arpPtr                  cstackBANK0   00084
ARPV4_Packet@entryPointer            cstackBANK0   00088
ARPV4_Packet@header                  cstackBANK0   0008A
ARPV4_Packet@length                  cstackBANK0   00080
ARPV4_Packet@mergeFlag               cstackBANK0   00082
ARPV4_Packet@ret                     cstackBANK0   00083
ARPV4_Packet@x                       cstackBANK0   00086
ARPV4_Packet@x_1672                  cstackBANK0   00087
ARPV4_Request@destAddress            cstackCOMRAM  0001D
ARPV4_Request@header                 cstackBANK0   0007C
ARPV4_Request@ret                    cstackBANK0   0007B
ARPV4_Update@entryPointer            cstackCOMRAM  00017
ARPV4_Update@x                       cstackCOMRAM  00019
DEMO_TCP_Client@ledNr                cstackBANK1   00120
DEMO_TCP_Client@port60TCB            bssBANK2      00230
DEMO_TCP_Client@pot                  cstackBANK1   0011B
DEMO_TCP_Client@rx_len               cstackBANK1   0011E
DEMO_TCP_Client@rxdataPort60         bssBANK2      00267
DEMO_TCP_Client@socketState          cstackBANK1   0011D
DEMO_TCP_Client@strTmp               cstackBANK1   00121
DEMO_TCP_Client@t_client             bssBANK1      001E5
DEMO_TCP_Client@t_clientOld          bssBANK2      00218
DEMO_TCP_Client@temperature          cstackBANK1   00119
DEMO_TCP_Client@txdataPort60         bssBANK3      00368
DHCP_Handler@ethMAC                  cstackBANK0   000C8
DHCP_Handler@ethPktMAC               cstackBANK0   000C2
DHCP_Handler@ip                      cstackBANK0   000B3
DHCP_Handler@length                  cstackBANK0   000AF
DHCP_Handler@myip                    cstackBANK0   000CF
DHCP_Handler@option                  cstackBANK0   000C1
DHCP_Handler@optionLength            cstackBANK0   000CE
DHCP_Handler@v                       cstackBANK0   000BB
DHCP_Handler@v16                     cstackBANK0   000BF
DHCP_Request@ethMAC                  cstackBANK0   000A9
DHCP_Request@started                 cstackBANK0   000A7
DHCP_Request@type                    cstackBANK0   000A8
DHCP_WriteZeros@length               cstackCOMRAM  00018
ETH_CheckLinkUp@value                cstackCOMRAM  00026
ETH_ComputeChecksum@cksm             cstackCOMRAM  0001F
ETH_ComputeChecksum@len              cstackCOMRAM  00017
ETH_ComputeChecksum@seed             cstackCOMRAM  00019
ETH_ComputeChecksum@v                cstackCOMRAM  00023
ETH_Copy@len                         cstackBANK0   00071
ETH_Copy@timer                       cstackBANK0   00073
ETH_Copy@tmp_len                     cstackBANK0   00075
ETH_Dump@length                      cstackCOMRAM  00017
ETH_GetByteCount@val                 cstackCOMRAM  00019
ETH_GetMAC@mac                       cstackCOMRAM  00017
ETH_Init@mac                         cstackCOMRAM  0002D
ETH_Insert@current_tx_ptr            cstackCOMRAM  0001B
ETH_Insert@data                      cstackCOMRAM  0001D
ETH_Insert@len                       cstackCOMRAM  00017
ETH_Insert@offset                    cstackCOMRAM  00019
ETH_Read16@ret                       cstackCOMRAM  00019
ETH_Read32@ret                       cstackCOMRAM  0001B
ETH_Read8@ret                        cstackCOMRAM  00017
ETH_ReadBlock@buffer                 cstackCOMRAM  00017
ETH_ReadBlock@len                    cstackCOMRAM  0001C
ETH_ReadBlock@length                 cstackCOMRAM  00019
ETH_ReadBlock@p                      cstackCOMRAM  0001E
ETH_RxComputeChecksum@cksm           cstackCOMRAM  0002F
ETH_RxComputeChecksum@len            cstackCOMRAM  00025
ETH_RxComputeChecksum@rxptr          cstackCOMRAM  0002D
ETH_RxComputeChecksum@seed           cstackCOMRAM  00027
ETH_Send@packetEnd                   cstackCOMRAM  00017
ETH_TxComputeChecksum@cksm           cstackCOMRAM  0002D
ETH_TxComputeChecksum@len            cstackCOMRAM  00027
ETH_TxComputeChecksum@position       cstackCOMRAM  00025
ETH_TxComputeChecksum@rxptr          cstackCOMRAM  0002B
ETH_TxComputeChecksum@seed           cstackCOMRAM  00029
ETH_Write16@data                     cstackCOMRAM  00017
ETH_Write32@data                     cstackCOMRAM  00017
ETH_Write8@data                      cstackCOMRAM  00017
ETH_WriteBlock@buffer                cstackCOMRAM  00017
ETH_WriteBlock@length                cstackCOMRAM  00019
ETH_WriteBlock@p                     cstackCOMRAM  0001B
ETH_WriteStart@dest_mac              cstackCOMRAM  00017
ETH_WriteStart@type                  cstackCOMRAM  00019
ICMP_EchoReply@cksm                  cstackBANK0   000A9
ICMP_EchoReply@icmpHdr               cstackBANK0   000AE
ICMP_EchoReply@ipv4Hdr               cstackBANK0   0009F
ICMP_EchoReply@ipv4PayloadLength     cstackBANK0   000AB
ICMP_EchoReply@ret                   cstackBANK0   000AD
ICMP_Receive@icmpHdr                 cstackBANK0   000B6
ICMP_Receive@ipv4Hdr                 cstackBANK0   000AF
IPV4_Packet@cksm                     cstackBANK1   00155
IPV4_Packet@hdrLen                   cstackBANK1   00152
IPV4_Packet@length                   cstackBANK1   00153
IPV4_PseudoHeaderChecksum@cksm       cstackCOMRAM  0001F
IPV4_PseudoHeaderChecksum@len        cstackCOMRAM  0001E
IPV4_PseudoHeaderChecksum@payloadLen cstackCOMRAM  00017
IPV4_PseudoHeaderChecksum@tmp        cstackCOMRAM  00023
IPV4_PseudoHeaderChecksum@v          cstackCOMRAM  0001D
IPV4_Send@cksm                       cstackBANK0   00070
IPV4_Send@payloadLength              cstackCOMRAM  00031
IPV4_Send@ret                        cstackBANK0   0006F
IPV4_Send@totalLength                cstackBANK0   00072
IPv4_Start@destAddress               cstackCOMRAM  00022
IPv4_Start@macAddress                cstackBANK0   0009C
IPv4_Start@protocol                  cstackCOMRAM  00026
IPv4_Start@ret                       cstackBANK0   0009E
IPv4_Start@targetAddress             cstackBANK0   00098
LED_Init@x                           cstackCOMRAM  00017
Network_Manage@now                   cstackBANK1   001BA
Network_Manage@nowPv                 bssBANK2      0021C
Network_Read@debug_str               cstackBANK1   0015B
Network_Read@header                  cstackBANK1   001AB
PHY_Read@reg                         cstackCOMRAM  0001D
PHY_Read@ret                         cstackCOMRAM  0001E
PHY_WaitForBusy@ret                  cstackCOMRAM  00017
PHY_WaitForBusy@timeout              cstackCOMRAM  00018
PHY_Write@GIESave                    cstackCOMRAM  0001C
PHY_Write@data                       cstackCOMRAM  00019
PHY_Write@reg                        cstackCOMRAM  0001B
PL387                                text82        022F4
PL389                                text82        0230C
PL391                                text84        02A40
PL393                                text82        02316
PL395                                text82        0231E
PL397                                text82        02338
PL399                                text103       04916
PL401                                text82        02344
PL403                                text82        02360
PL405                                text82        02372
PL407                                text82        023B2
PL409                                text20        03426
PL411                                text13        0424A
PL413                                text83        0442C
PL415                                text82        023CC
PL417                                text82        023D4
PL419                                text82        023DC
PL421                                text35        03760
PL423                                text82        023E4
PL425                                text82        023EE
PL427                                text82        0240A
PL429                                text82        02412
PL431                                text82        0241A
PL433                                text15        03A2A
PL435                                text20        03440
PL437                                text60        0308E
PL439                                text84        02A5A
PL441                                text82        02422
PL443                                text82        0243C
PL445                                text82        02456
PL447                                text84        02AAE
PL449                                text82        02470
PL451                                text82        02478
PL453                                text90        04E12
PL455                                text82        02480
PL457                                text82        0248E
PL459                                text82        0249C
PL461                                text60        030A6
PL463                                text60        030B2
PL465                                text60        030BC
PL467                                text82        024B6
PL469                                text60        030C8
PL471                                text82        024C2
PL473                                text82        024CC
PL475                                text89        049F4
PL477                                text82        024D6
PL479                                text82        024DE
PL481                                text82        024E6
PL483                                text82        024F8
PL485                                text84        02ABC
PL487                                text60        030D0
PL489                                text47        04D0C
PL491                                text82        0250A
PL493                                text56        03D40
PL495                                text20        0349E
PL497                                text35        037D2
PL499                                text82        0251C
PL501                                text15        03A8A
PL503                                text84        02AD6
PL505                                text73        05786
PL507                                text82        0252E
PL509                                text35        037FA
PL511                                text27        04B9C
PL513                                text82        02538
PL515                                text82        02540
PL517                                text35        0380E
PL519                                text82        02548
PL521                                text60        030DE
PL523                                text15        03AB2
PL525                                text38        0461A
PL527                                text84        02AE0
PL529                                text35        0382A
PL531                                text84        02AEE
PL533                                text40        0588E
PL535                                text20        034C6
PL537                                text76        056F4
PL539                                text84        02B0A
PL541                                text15        03AC4
PL543                                text83        04448
PL545                                text82        02550
PL547                                text84        02B26
PL549                                text83        04456
PL551                                text56        03D68
PL553                                text84        02B40
PL555                                text84        02B5A
PL557                                text84        02B74
PL559                                text84        02B8E
PL561                                text84        02BA8
PL563                                text84        02BC2
PL565                                text89        04A2A
PL567                                text56        03D82
PL569                                text15        03ADE
PL571                                text15        03AF8
PL573                                text56        03D9C
PL575                                text89        04A44
PL577                                text60        030F0
PL579                                text27        04BBC
PL581                                text84        02BDC
PL583                                text60        030F8
PL585                                text34        05D32
PL587                                text95        05B88
PL589                                text89        04A5C
PL591                                text35        03844
PL593                                text15        03B08
PL595                                text84        02BF4
PL597                                text13        04264
PL599                                text20        034E0
PL601                                text16        05112
PL603                                text93        061E4
PL605                                text78        05B0E
PL607                                text77        05A96
PL609                                text17        0400A
PL611                                text84        02C02
PL613                                text84        02C14
PL615                                text84        02C26
PL617                                text82        0255E
PL619                                text77        05AA0
PL621                                text0         05042
PL623                                text82        02566
PL625                                text84        02C38
PL627                                text27        04BD4
PL629                                text97        05520
PL631                                text84        02C48
PL633                                text84        02C52
PL635                                text38        0462C
PL637                                text83        04470
PL639                                text82        02576
PL641                                text82        02580
PL643                                text29        051D0
PL645                                text79        05274
PL647                                text84        02C62
PL649                                text83        0447A
PL651                                text84        02C70
PL653                                text38        04636
PL655                                text60        03100
PL657                                text20        034F4
PL659                                text60        0310E
PL661                                text13        04272
PL663                                text79        0527C
PL665                                text84        02C7E
PL667                                text37        0592A
PL669                                text89        04A72
PL671                                text84        02C88
PL673                                text98        06218
PL675                                text12        059AC
PL677                                text67        065B6
PL679                                text23        060C0
PL681                                text22        06390
PL683                                text89        04A7E
PL685                                text15        03B1E
PL687                                text60        0311C
PL689                                text60        03126
PL691                                text83        04488
PL693                                text82        0258E
PL695                                text85        047BC
PL697                                text21        04F38
PL699                                text15        03B28
PL701                                text84        02C94
PL703                                text20        03502
PL705                                text20        0350C
PL707                                text84        02C9E
PL709                                text15        03B32
PL711                                text35        0384E
PL713                                text36        05F46
PL715                                text79        05286
PL717                                text90        04E2A
PL719                                text78        05B18
PL721                                text74        06080
PL723                                text84        02CA8
PL725                                text6         055C2
PL727                                text84        02CB0
PL729                                text27        04BDE
PL731                                text89        04A8A
PL733                                text60        03130
PL735                                text60        0313A
PL737                                text56        03DB4
PL739                                text15        03B3C
PL741                                text15        03B46
PL743                                text17        0401C
PL745                                text36        05F4E
PL747                                text6         055C8
PL749                                text52        053DE
PL751                                text50        06286
PL753                                text36        05F56
PL755                                text36        05F5E
PL757                                text26        05F10
PL759                                text109       05488
PL761                                text84        02CBA
SYSLOG_Init@t                        cstackBANK0   0006D
SYSLOG_Write@message                 cstackBANK0   0006D
SYSLOG_Write@t                       cstackBANK0   0006F
TCB_Check@count                      cstackCOMRAM  0001C
TCB_Check@ptr                        cstackCOMRAM  00017
TCB_Check@ret                        cstackCOMRAM  0001B
TCB_Check@tcbPtr                     cstackCOMRAM  0001D
TCB_Insert@ptr                       cstackCOMRAM  00017
TCB_Reset@tcbPtr                     cstackCOMRAM  00017
TCP_Connect@srvaddr                  cstackBANK1   00113
TCP_Connect@tcbPtr                   cstackBANK1   00111
TCP_FiniteStateMachine@event         cstackBANK1   0010F
TCP_FiniteStateMachine@nextState     cstackBANK1   00110
TCP_FiniteStateMachine@notAckBytes   cstackBANK1   0010D
TCP_FiniteStateMachine@ret           cstackBANK1   0010C
TCP_GetReceivedData@ret              cstackCOMRAM  00025
TCP_GetReceivedData@tcbPtr           cstackCOMRAM  0001F
TCP_InsertRxBuffer@data              cstackCOMRAM  00021
TCP_InsertRxBuffer@data_len          cstackCOMRAM  00023
TCP_InsertRxBuffer@tcbPtr            cstackCOMRAM  0001F
TCP_ParseTCPOptions@opt              cstackCOMRAM  0001E
TCP_ParseTCPOptions@ret              cstackCOMRAM  0001D
TCP_ParseTCPOptions@tcpOptionsSize   cstackCOMRAM  0001F
TCP_PayloadSave@buffer_size          cstackBANK0   000FD
TCP_PayloadSave@len                  cstackBANK0   000EE
TCP_Recv@count                       cstackBANK1   00133
TCP_Recv@length                      cstackBANK1   00115
TCP_Recv@remoteAddress               cstackBANK1   00111
TCP_Recv@tcbPtr                      cstackBANK1   00134
TCP_Send@data                        cstackBANK0   000F0
TCP_Send@dataLen                     cstackBANK0   000F2
TCP_Send@tcbPtr                      cstackBANK0   000EE
TCP_SendDone@ret                     cstackCOMRAM  00021
TCP_SendDone@tcbPtr                  cstackCOMRAM  0001F
TCP_Snd@cksm                         cstackBANK0   000D3
TCP_Snd@data                         cstackBANK0   000D1
TCP_Snd@payloadLength                cstackBANK0   000D5
TCP_Snd@ret                          cstackBANK0   000D7
TCP_Snd@tcbPtr                       cstackBANK0   0009F
TCP_Snd@tcpDataLength                cstackBANK0   000D8
TCP_Snd@txHeader                     cstackBANK0   000DA
TCP_SocketInit@tcbPtr                cstackCOMRAM  0001F
TCP_SocketPoll@socket_ptr            cstackCOMRAM  0001F
TCP_SocketPoll@tmpSocketState        cstackCOMRAM  00021
TCP_Update@count                     cstackBANK1   00119
TCP_Update@tcbPtr                    cstackBANK1   0011B
UDP_Receive@hptr                     cstackBANK0   000DD
UDP_Receive@udpcksm                  cstackBANK0   000D3
UDP_Receive@x                        cstackBANK0   000DB
UDP_Send@cksm                        cstackBANK0   00079
UDP_Send@udpLength                   cstackBANK0   0007B
UDP_Start@destIP                     cstackBANK0   0009F
UDP_Start@dstPort                    cstackBANK0   000A5
UDP_Start@ret                        cstackCOMRAM  0002F
UDP_Start@srcPort                    cstackBANK0   000A3
_ADCON0                              (abs)         00FC2
_ADCON0bits                          (abs)         00FC2
_ADCON1                              (abs)         00FC1
_ADCON2                              (abs)         00FC0
_ADC_GetConversion                   text104       06316
_ADC_Initialize                      text9         06692
_ADRES                               (abs)         00FC3
_ADRESH                              (abs)         00FC4
_ADRESL                              (abs)         00FC3
_ARPV4_Init                          text54        06616
_ARPV4_Lookup                        text94        05DE6
_ARPV4_Packet                        text35        03516
_ARPV4_Request                       text89        04930
_ARPV4_Update                        text43        0639C
_BAUDCON1                            (abs)         00F7E
_BAUDCON1bits                        (abs)         00F7E
_CREN1                               (abs)         07D5C
_DEMO_TCP_Client                     text56        03B50
_DHCP_Handler                        text17        03DBE
_DHCP_Manage                         text37        058AA
_DHCP_Request                        text38        04492
_DHCP_WriteZeros                     text42        06664
_ECON1                               (abs)         00FD2
_ECON1bits                           (abs)         00FD2
_ECON2                               (abs)         00EFE
_EDMADST                             (abs)         00EF4
_EDMAND                              (abs)         00EF2
_EDMAST                              (abs)         00EF0
_EIE                                 (abs)         00EFB
_EIEbits                             (abs)         00EFB
_EIRbits                             (abs)         00F60
_EPKTCNT                             (abs)         00ED9
_ERDPT                               (abs)         00F7A
_ERXFCON                             (abs)         00ED8
_ERXND                               (abs)         00EEA
_ERXRDPT                             (abs)         00EEC
_ERXST                               (abs)         00EE8
_ESTATbits                           (abs)         00EFD
_ETH_CheckLinkUp                     text50        0625A
_ETH_ComputeChecksum                 text97        05490
_ETH_Copy                            text29        05126
_ETH_Dump                            text24        062BA
_ETH_EdataRead                       text102       00000
_ETH_EdataWrite                      text100       00000
_ETH_EventHandler                    text36        05F18
_ETH_Flush                           text34        05CF8
_ETH_GetByteCount                    text41        06586
_ETH_GetMAC                          text93        061B8
_ETH_Init                            text47        04BE8
_ETH_Insert                          text99        060CC
_ETH_NextPacketUpdate                text33        05C4E
_ETH_Read16                          text23        0608A
_ETH_Read32                          text19        05BF6
_ETH_Read8                           text22        06372
_ETH_ReadBlock                       text101       05B92
_ETH_ResetByteCount                  text91        06730
_ETH_RxComputeChecksum               text32        05FFA
_ETH_SaveRDPT                        text28        06708
_ETH_Send                            text98        061EE
_ETH_TxComputeChecksum               text96        05790
_ETH_Write16                         text88        066E4
_ETH_Write32                         text87        0664A
_ETH_Write8                          text86        06726
_ETH_WriteBlock                      text92        05F64
_ETH_WriteStart                      text90        04D14
_ETH_readLinkStatus                  text51        00000
_ETXND                               (abs)         00EE6
_ETXST                               (abs)         00EE4
_EWRPT                               (abs)         00EE2
_GIE                                 (abs)         07F97
_GIEH                                (abs)         07F97
_GIEL                                (abs)         07F96
_ICMP_EchoReply                      text27        04A94
_ICMP_Receive                        text26        05ECC
_INTCON                              (abs)         00FF2
_IPEN                                (abs)         07E87
_IPR2bits                            (abs)         00FA2
_IPV4_GetMyIP                        text55        066A8
_IPV4_Init                           text46        06712
_IPV4_Packet                         text15        03858
_IPV4_PseudoHeaderChecksum           text25        055CE
_IPV4_Send                           text95        05B22
_IPv4_Start                          text85        04644
_LATDbits                            (abs)         00F8C
_LATE                                (abs)         00F8D
_LATH                                (abs)         00F90
_LATH0                               (abs)         07C80
_LATH1                               (abs)         07C81
_LATH2                               (abs)         07C82
_LATJ                                (abs)         00F91
_LED_Init                            text8         06526
_MAADR1                              (abs)         00E84
_MAADR2                              (abs)         00E85
_MAADR3                              (abs)         00E82
_MAADR4                              (abs)         00E83
_MAADR5                              (abs)         00E80
_MAADR6                              (abs)         00E81
_MABBIPG                             (abs)         00EA4
_MACON1                              (abs)         00EA0
_MACON3                              (abs)         00EA2
_MACON4                              (abs)         00EA3
_MAC_getAddress                      text49        06742
_MAIPG                               (abs)         00EA6
_MAMXFL                              (abs)         00EAA
_MICMD                               (abs)         00EB2
_MICMDbits                           (abs)         00EB2
_MIRD                                (abs)         00EB8
_MIREGADR                            (abs)         00EB4
_MISTATbits                          (abs)         00E8A
_MIWR                                (abs)         00EB6
_Network_Init                        text44        06490
_Network_Manage                      text12        05934
_Network_Read                        text14        05290
_Network_WaitForLink                 text11        066C8
_OSCCON                              (abs)         00FD3
_OSCTUNE                             (abs)         00F9B
_PHY_Read                            text52        0533C
_PHY_WaitForBusy                     text53        00000
_PHY_Write                           text48        05D48
_PIE2bits                            (abs)         00FA0
_PIR2bits                            (abs)         00FA1
_PORTB                               (abs)         00F81
_PORTJ                               (abs)         00F88
_SPBRG1                              (abs)         00FAF
_SPEN1                               (abs)         07D5F
_SSP1CON1                            (abs)         00FC6
_SSP1CON1bits                        (abs)         00FC6
_SSP1STATbits                        (abs)         00FC7
_SYSLOG_Init                         text10        0628C
_SYSLOG_Write                        text30        0646A
_T1CKPS0                             (abs)         07E6C
_T1CKPS1                             (abs)         07E6D
_T1OSCEN                             (abs)         07E6B
_T1SYNC                              (abs)         07E6A
_TCB_Check                           text81        059B8
_TCB_Insert                          text74        06042
_TCB_Reset                           text103       047C6
_TCP_Connect                         text79        051DE
_TCP_FiniteStateMachine              text82        010FA
_TCP_GetReceivedData                 text78        05AAC
_TCP_Init                            text45        065C2
_TCP_InsertRxBuffer                  text77        05A36
_TCP_ParseTCPOptions                 text21        04E34
_TCP_PayloadSave                     text83        0427C
_TCP_Recv                            text20        03144
_TCP_Send                            text76        05666
_TCP_SendDone                        text75        063F0
_TCP_Snd                             text84        02598
_TCP_SocketInit                      text73        056FE
_TCP_SocketPoll                      text80        064DC
_TCP_Update                          text13        04024
_TMR1                                (abs)         00FCE
_TMR1CS                              (abs)         07E69
_TMR1IE                              (abs)         07CE8
_TMR1IF                              (abs)         07CF0
_TMR1IP                              (abs)         07CF8
_TMR1ON                              (abs)         07E68
_TRISA                               (abs)         00F92
_TRISAbits                           (abs)         00F92
_TRISB                               (abs)         00F93
_TRISCbits                           (abs)         00F94
_TRISDbits                           (abs)         00F95
_TRISE                               (abs)         00F96
_TRISH                               (abs)         00F99
_TRISJ                               (abs)         00F9A
_TX1IF                               (abs)         07CF4
_TXREG1                              (abs)         00FAD
_TXSTA1                              (abs)         00FAC
_UDP_CallBackTable                   smallconst    01034
_UDP_Receive                         text16        0504E
_UDP_Send                            text40        0581E
_UDP_Start                           text39        05D98
__CFG_BW$16                          (abs)         00000
__CFG_CCP2MX$ON                      (abs)         00000
__CFG_CP0$OFF                        (abs)         00000
__CFG_EASHFT$OFF                     (abs)         00000
__CFG_ECCPMX$ON                      (abs)         00000
__CFG_ETHLED$ON                      (abs)         00000
__CFG_FCMEN$ON                       (abs)         00000
__CFG_FOSC$HSPLL                     (abs)         00000
__CFG_FOSC2$ON                       (abs)         00000
__CFG_IESO$ON                        (abs)         00000
__CFG_MODE$MM                        (abs)         00000
__CFG_STVR$ON                        (abs)         00000
__CFG_WAIT$OFF                       (abs)         00000
__CFG_WDT$OFF                        (abs)         00000
__CFG_WDTPS$32768                    (abs)         00000
__CFG_XINST$OFF                      (abs)         00000
__HRAM                               (abs)         00000
__Habs1                              abs1          00000
__Hbank0                             bank0         00000
__Hbank1                             bank1         00000
__Hbank10                            bank10        00000
__Hbank11                            bank11        00000
__Hbank12                            bank12        00000
__Hbank13                            bank13        00000
__Hbank14                            bank14        00000
__Hbank15                            bank15        00000
__Hbank2                             bank2         00000
__Hbank3                             bank3         00000
__Hbank4                             bank4         00000
__Hbank5                             bank5         00000
__Hbank6                             bank6         00000
__Hbank7                             bank7         00000
__Hbank8                             bank8         00000
__Hbank9                             bank9         00000
__Hbigbss                            bigbss        00000
__Hbigdata                           bigdata       00000
__Hbigram                            bigram        00000
__Hbss                               bss           00000
__HbssBANK1                          bssBANK1      00000
__HbssBANK2                          bssBANK2      00000
__HbssBANK3                          bssBANK3      00000
__HbssCOMRAM                         bssCOMRAM     00000
__Hcinit                             cinit         00000
__Hclrtext                           clrtext       00000
__Hcomram                            comram        00000
__Hconfig                            config        1FFFE
__Hconst                             const         00000
__HcstackBANK0                       cstackBANK0   00000
__HcstackBANK1                       cstackBANK1   00000
__HcstackBANK2                       cstackBANK2   00000
__HcstackCOMRAM                      cstackCOMRAM  00000
__Hdata                              data          00000
__HdataBANK0                         dataBANK0     00000
__Hend_init                          end_init      0003E
__Hfarbss                            farbss        00000
__Hfardata                           fardata       00000
__Hibigdata                          ibigdata      00000
__Hidata                             idata         00000
__HidataBANK0                        idataBANK0    00000
__Hidloc                             idloc         00000
__Hifardata                          ifardata      00000
__Hinit                              init          0003A
__Hintcode                           intcode       0000E
__Hintcode_body                      intcode_body  00000
__Hintcodelo                         intcodelo     0003A
__Hintentry                          intentry      00000
__Hintret                            intret        00000
__Hintsave_regs                      intsave_regs  00000
__Hirdata                            irdata        00000
__Hjflash_buffer                     jflash_buffer 1F800
__Hmediumconst                       mediumconst   00000
__HnvBANK2                           nvBANK2       00000
__HnvFARRAM                          nvFARRAM      00000
__Hnvbit                             nvbit         00000
__Hnvrram                            nvrram        00000
__Hpa_nodes                          pa_nodes      00000
__Hparam                             rparam        00000
__Hpowerup                           powerup       0003A
__Hram                               ram           00000
__Hramtop                            ramtop        01000
__Hrbit                              rbit          00000
__Hrbss                              rbss          00000
__Hrdata                             rdata         00000
__Hreset_vec                         reset_vec     00004
__Hrparam                            rparam        00000
__Hsfr                               sfr           00000
__Hsmallconst                        smallconst    010FA
__Hspace_0                           (abs)         1FFFE
__Hspace_1                           (abs)         003B8
__Hspace_2                           (abs)         00000
__Hstack                             stack         00000
__Hstruct                            struct        00000
__Htemp                              temp          0004A
__Htext                              text          00000
__Htext0                             text0         00000
__Htext1                             text1         00000
__Htext10                            text10        00000
__Htext100                           text100       00000
__Htext101                           text101       00000
__Htext102                           text102       00000
__Htext103                           text103       00000
__Htext104                           text104       00000
__Htext106                           text106       00000
__Htext107                           text107       00000
__Htext108                           text108       00000
__Htext109                           text109       00000
__Htext11                            text11        00000
__Htext110                           text110       00000
__Htext112                           text112       00000
__Htext113                           text113       00000
__Htext12                            text12        00000
__Htext13                            text13        00000
__Htext14                            text14        00000
__Htext15                            text15        00000
__Htext16                            text16        00000
__Htext17                            text17        00000
__Htext18                            text18        00000
__Htext19                            text19        00000
__Htext2                             text2         00000
__Htext20                            text20        00000
__Htext21                            text21        00000
__Htext22                            text22        00000
__Htext23                            text23        00000
__Htext24                            text24        00000
__Htext25                            text25        00000
__Htext26                            text26        00000
__Htext27                            text27        00000
__Htext28                            text28        00000
__Htext29                            text29        00000
__Htext3                             text3         00000
__Htext30                            text30        00000
__Htext31                            text31        00000
__Htext32                            text32        00000
__Htext33                            text33        00000
__Htext34                            text34        00000
__Htext35                            text35        00000
__Htext36                            text36        00000
__Htext37                            text37        00000
__Htext38                            text38        00000
__Htext39                            text39        00000
__Htext4                             text4         00000
__Htext40                            text40        00000
__Htext41                            text41        00000
__Htext42                            text42        00000
__Htext43                            text43        00000
__Htext44                            text44        00000
__Htext45                            text45        00000
__Htext46                            text46        00000
__Htext47                            text47        00000
__Htext48                            text48        00000
__Htext49                            text49        00000
__Htext5                             text5         00000
__Htext50                            text50        00000
__Htext51                            text51        00000
__Htext52                            text52        00000
__Htext53                            text53        00000
__Htext54                            text54        00000
__Htext55                            text55        00000
__Htext56                            text56        00000
__Htext57                            text57        00000
__Htext58                            text58        00000
__Htext59                            text59        00000
__Htext6                             text6         00000
__Htext60                            text60        00000
__Htext61                            text61        00000
__Htext62                            text62        00000
__Htext63                            text63        00000
__Htext64                            text64        00000
__Htext65                            text65        00000
__Htext66                            text66        00000
__Htext67                            text67        00000
__Htext68                            text68        00000
__Htext69                            text69        00000
__Htext7                             text7         00000
__Htext70                            text70        00000
__Htext71                            text71        00000
__Htext72                            text72        00000
__Htext73                            text73        00000
__Htext74                            text74        00000
__Htext75                            text75        00000
__Htext76                            text76        00000
__Htext77                            text77        00000
__Htext78                            text78        00000
__Htext79                            text79        00000
__Htext8                             text8         00000
__Htext80                            text80        00000
__Htext81                            text81        00000
__Htext82                            text82        00000
__Htext83                            text83        00000
__Htext84                            text84        00000
__Htext85                            text85        00000
__Htext86                            text86        00000
__Htext87                            text87        00000
__Htext88                            text88        00000
__Htext89                            text89        00000
__Htext9                             text9         00000
__Htext90                            text90        00000
__Htext91                            text91        00000
__Htext92                            text92        00000
__Htext93                            text93        00000
__Htext94                            text94        00000
__Htext95                            text95        00000
__Htext96                            text96        00000
__Htext97                            text97        00000
__Htext98                            text98        00000
__Htext99                            text99        00000
__LRAM                               (abs)         00001
__Labs1                              abs1          00000
__Lbank0                             bank0         00000
__Lbank1                             bank1         00000
__Lbank10                            bank10        00000
__Lbank11                            bank11        00000
__Lbank12                            bank12        00000
__Lbank13                            bank13        00000
__Lbank14                            bank14        00000
__Lbank15                            bank15        00000
__Lbank2                             bank2         00000
__Lbank3                             bank3         00000
__Lbank4                             bank4         00000
__Lbank5                             bank5         00000
__Lbank6                             bank6         00000
__Lbank7                             bank7         00000
__Lbank8                             bank8         00000
__Lbank9                             bank9         00000
__Lbigbss                            bigbss        00000
__Lbigdata                           bigdata       00000
__Lbigram                            bigram        00000
__Lbss                               bss           00000
__LbssBANK1                          bssBANK1      00000
__LbssBANK2                          bssBANK2      00000
__LbssBANK3                          bssBANK3      00000
__LbssCOMRAM                         bssCOMRAM     00000
__Lcinit                             cinit         00000
__Lclrtext                           clrtext       00000
__Lcomram                            comram        00000
__Lconfig                            config        1FFF8
__Lconst                             const         00000
__LcstackBANK0                       cstackBANK0   00000
__LcstackBANK1                       cstackBANK1   00000
__LcstackBANK2                       cstackBANK2   00000
__LcstackCOMRAM                      cstackCOMRAM  00000
__Ldata                              data          00000
__LdataBANK0                         dataBANK0     00000
__Lend_init                          end_init      0003A
__Lfarbss                            farbss        00000
__Lfardata                           fardata       00000
__Libigdata                          ibigdata      00000
__Lidata                             idata         00000
__LidataBANK0                        idataBANK0    00000
__Lidloc                             idloc         00000
__Lifardata                          ifardata      00000
__Linit                              init          0003A
__Lintcode                           intcode       00008
__Lintcode_body                      intcode_body  00000
__Lintcodelo                         intcodelo     00018
__Lintentry                          intentry      00000
__Lintret                            intret        00000
__Lintsave_regs                      intsave_regs  00000
__Lirdata                            irdata        00000
__Ljflash_buffer                     jflash_buffer 1F800
__Lmediumconst                       mediumconst   00000
__LnvBANK2                           nvBANK2       00000
__LnvFARRAM                          nvFARRAM      00000
__Lnvbit                             nvbit         00000
__Lnvrram                            nvrram        00000
__Lpa_nodes                          pa_nodes      00000
__Lparam                             rparam        00000
__Lpowerup                           powerup       0003A
__Lram                               ram           00000
__Lramtop                            ramtop        01000
__Lrbit                              rbit          00000
__Lrbss                              rbss          00000
__Lrdata                             rdata         00000
__Lreset_vec                         reset_vec     00000
__Lrparam                            rparam        00000
__Lsfr                               sfr           00000
__Lsmallconst                        smallconst    01000
__Lspace_0                           (abs)         00000
__Lspace_1                           (abs)         00000
__Lspace_2                           (abs)         00000
__Lstack                             stack         00000
__Lstruct                            struct        00000
__Ltemp                              temp          00049
__Ltext                              text          00000
__Ltext0                             text0         00000
__Ltext1                             text1         00000
__Ltext10                            text10        00000
__Ltext100                           text100       00000
__Ltext101                           text101       00000
__Ltext102                           text102       00000
__Ltext103                           text103       00000
__Ltext104                           text104       00000
__Ltext106                           text106       00000
__Ltext107                           text107       00000
__Ltext108                           text108       00000
__Ltext109                           text109       00000
__Ltext11                            text11        00000
__Ltext110                           text110       00000
__Ltext112                           text112       00000
__Ltext113                           text113       00000
__Ltext12                            text12        00000
__Ltext13                            text13        00000
__Ltext14                            text14        00000
__Ltext15                            text15        00000
__Ltext16                            text16        00000
__Ltext17                            text17        00000
__Ltext18                            text18        00000
__Ltext19                            text19        00000
__Ltext2                             text2         00000
__Ltext20                            text20        00000
__Ltext21                            text21        00000
__Ltext22                            text22        00000
__Ltext23                            text23        00000
__Ltext24                            text24        00000
__Ltext25                            text25        00000
__Ltext26                            text26        00000
__Ltext27                            text27        00000
__Ltext28                            text28        00000
__Ltext29                            text29        00000
__Ltext3                             text3         00000
__Ltext30                            text30        00000
__Ltext31                            text31        00000
__Ltext32                            text32        00000
__Ltext33                            text33        00000
__Ltext34                            text34        00000
__Ltext35                            text35        00000
__Ltext36                            text36        00000
__Ltext37                            text37        00000
__Ltext38                            text38        00000
__Ltext39                            text39        00000
__Ltext4                             text4         00000
__Ltext40                            text40        00000
__Ltext41                            text41        00000
__Ltext42                            text42        00000
__Ltext43                            text43        00000
__Ltext44                            text44        00000
__Ltext45                            text45        00000
__Ltext46                            text46        00000
__Ltext47                            text47        00000
__Ltext48                            text48        00000
__Ltext49                            text49        00000
__Ltext5                             text5         00000
__Ltext50                            text50        00000
__Ltext51                            text51        00000
__Ltext52                            text52        00000
__Ltext53                            text53        00000
__Ltext54                            text54        00000
__Ltext55                            text55        00000
__Ltext56                            text56        00000
__Ltext57                            text57        00000
__Ltext58                            text58        00000
__Ltext59                            text59        00000
__Ltext6                             text6         00000
__Ltext60                            text60        00000
__Ltext61                            text61        00000
__Ltext62                            text62        00000
__Ltext63                            text63        00000
__Ltext64                            text64        00000
__Ltext65                            text65        00000
__Ltext66                            text66        00000
__Ltext67                            text67        00000
__Ltext68                            text68        00000
__Ltext69                            text69        00000
__Ltext7                             text7         00000
__Ltext70                            text70        00000
__Ltext71                            text71        00000
__Ltext72                            text72        00000
__Ltext73                            text73        00000
__Ltext74                            text74        00000
__Ltext75                            text75        00000
__Ltext76                            text76        00000
__Ltext77                            text77        00000
__Ltext78                            text78        00000
__Ltext79                            text79        00000
__Ltext8                             text8         00000
__Ltext80                            text80        00000
__Ltext81                            text81        00000
__Ltext82                            text82        00000
__Ltext83                            text83        00000
__Ltext84                            text84        00000
__Ltext85                            text85        00000
__Ltext86                            text86        00000
__Ltext87                            text87        00000
__Ltext88                            text88        00000
__Ltext89                            text89        00000
__Ltext9                             text9         00000
__Ltext90                            text90        00000
__Ltext91                            text91        00000
__Ltext92                            text92        00000
__Ltext93                            text93        00000
__Ltext94                            text94        00000
__Ltext95                            text95        00000
__Ltext96                            text96        00000
__Ltext97                            text97        00000
__Ltext98                            text98        00000
__Ltext99                            text99        00000
__S0                                 (abs)         1FFFE
__S1                                 (abs)         003B8
__S2                                 (abs)         00000
___extmem_base                       (abs)         20000
___inthi_sp                          stack         00000
___intlo_sp                          stack         00000
___lwdiv                             text65        05FB0
___lwdiv@counter                     cstackCOMRAM  0001B
___lwdiv@dividend                    cstackCOMRAM  00017
___lwdiv@divisor                     cstackCOMRAM  00019
___lwdiv@quotient                    cstackCOMRAM  0001C
___lwmod                             text64        0610C
___lwmod@counter                     cstackCOMRAM  00022
___lwmod@dividend                    cstackCOMRAM  0001E
___lwmod@divisor                     cstackCOMRAM  00020
___param_bank                        (abs)         00010
___rparam_used                       (abs)         00001
___sp                                stack         00000
___wmul                              text63        064B6
___wmul@multiplicand                 cstackCOMRAM  00019
___wmul@multiplier                   cstackCOMRAM  00017
___wmul@product                      cstackCOMRAM  0001B
__accesstop                          (abs)         00060
__activetblptr                       (abs)         00003
__doprnt                             text60        02CC2
__doprnt@ap                          cstackCOMRAM  00024
__doprnt@c                           cstackBANK0   0006B
__doprnt@cp                          cstackBANK0   00064
__doprnt@f                           cstackCOMRAM  00023
__doprnt@flag                        cstackBANK0   00066
__doprnt@idx                         cstackBANK0   00060
__doprnt@len                         cstackBANK0   00062
__doprnt@pb                          cstackBANK0   0006C
__doprnt@prec                        cstackBANK0   00061
__doprnt@val                         cstackBANK0   00067
__doprnt@width                       cstackBANK0   00069
__end_ofPL387                        text82        0230C
__end_ofPL389                        text82        02316
__end_ofPL391                        text84        02A5A
__end_ofPL393                        text82        0231E
__end_ofPL395                        text82        02338
__end_ofPL397                        text82        02344
__end_ofPL399                        text103       04930
__end_ofPL401                        text82        02360
__end_ofPL403                        text82        02372
__end_ofPL405                        text82        023B2
__end_ofPL407                        text82        023CC
__end_ofPL409                        text20        03440
__end_ofPL411                        text13        04264
__end_ofPL413                        text83        04448
__end_ofPL415                        text82        023D4
__end_ofPL417                        text82        023DC
__end_ofPL419                        text82        023E4
__end_ofPL421                        text35        037D2
__end_ofPL423                        text82        023EE
__end_ofPL425                        text82        0240A
__end_ofPL427                        text82        02412
__end_ofPL429                        text82        0241A
__end_ofPL431                        text82        02422
__end_ofPL433                        text15        03A8A
__end_ofPL435                        text20        0349E
__end_ofPL437                        text60        030A6
__end_ofPL439                        text84        02AAE
__end_ofPL441                        text82        0243C
__end_ofPL443                        text82        02456
__end_ofPL445                        text82        02470
__end_ofPL447                        text84        02ABC
__end_ofPL449                        text82        02478
__end_ofPL451                        text82        02480
__end_ofPL453                        text90        04E2A
__end_ofPL455                        text82        0248E
__end_ofPL457                        text82        0249C
__end_ofPL459                        text82        024B6
__end_ofPL461                        text60        030B2
__end_ofPL463                        text60        030BC
__end_ofPL465                        text60        030C8
__end_ofPL467                        text82        024C2
__end_ofPL469                        text60        030D0
__end_ofPL471                        text82        024CC
__end_ofPL473                        text82        024D6
__end_ofPL475                        text89        04A2A
__end_ofPL477                        text82        024DE
__end_ofPL479                        text82        024E6
__end_ofPL481                        text82        024F8
__end_ofPL483                        text82        0250A
__end_ofPL485                        text84        02AD6
__end_ofPL487                        text60        030DE
__end_ofPL489                        text47        04D14
__end_ofPL491                        text82        0251C
__end_ofPL493                        text56        03D68
__end_ofPL495                        text20        034C6
__end_ofPL497                        text35        037FA
__end_ofPL499                        text82        0252E
__end_ofPL501                        text15        03AB2
__end_ofPL503                        text84        02AE0
__end_ofPL505                        text73        05790
__end_ofPL507                        text82        02538
__end_ofPL509                        text35        0380E
__end_ofPL511                        text27        04BBC
__end_ofPL513                        text82        02540
__end_ofPL515                        text82        02548
__end_ofPL517                        text35        0382A
__end_ofPL519                        text82        02550
__end_ofPL521                        text60        030F0
__end_ofPL523                        text15        03AC4
__end_ofPL525                        text38        0462C
__end_ofPL527                        text84        02AEE
__end_ofPL529                        text35        03844
__end_ofPL531                        text84        02B0A
__end_ofPL533                        text40        058AA
__end_ofPL535                        text20        034E0
__end_ofPL537                        text76        056FE
__end_ofPL539                        text84        02B26
__end_ofPL541                        text15        03ADE
__end_ofPL543                        text83        04456
__end_ofPL545                        text82        0255E
__end_ofPL547                        text84        02B40
__end_ofPL549                        text83        04470
__end_ofPL551                        text56        03D82
__end_ofPL553                        text84        02B5A
__end_ofPL555                        text84        02B74
__end_ofPL557                        text84        02B8E
__end_ofPL559                        text84        02BA8
__end_ofPL561                        text84        02BC2
__end_ofPL563                        text84        02BDC
__end_ofPL565                        text89        04A44
__end_ofPL567                        text56        03D9C
__end_ofPL569                        text15        03AF8
__end_ofPL571                        text15        03B08
__end_ofPL573                        text56        03DB4
__end_ofPL575                        text89        04A5C
__end_ofPL577                        text60        030F8
__end_ofPL579                        text27        04BD4
__end_ofPL581                        text84        02BF4
__end_ofPL583                        text60        03100
__end_ofPL585                        text34        05D48
__end_ofPL587                        text95        05B92
__end_ofPL589                        text89        04A72
__end_ofPL591                        text35        0384E
__end_ofPL593                        text15        03B1E
__end_ofPL595                        text84        02C02
__end_ofPL597                        text13        04272
__end_ofPL599                        text20        034F4
__end_ofPL601                        text16        05126
__end_ofPL603                        text93        061EE
__end_ofPL605                        text78        05B18
__end_ofPL607                        text77        05AA0
__end_ofPL609                        text17        0401C
__end_ofPL611                        text84        02C14
__end_ofPL613                        text84        02C26
__end_ofPL615                        text84        02C38
__end_ofPL617                        text82        02566
__end_ofPL619                        text77        05AAC
__end_ofPL621                        text0         0504E
__end_ofPL623                        text82        02576
__end_ofPL625                        text84        02C48
__end_ofPL627                        text27        04BDE
__end_ofPL629                        text97        05530
__end_ofPL631                        text84        02C52
__end_ofPL633                        text84        02C62
__end_ofPL635                        text38        04636
__end_ofPL637                        text83        0447A
__end_ofPL639                        text82        02580
__end_ofPL641                        text82        0258E
__end_ofPL643                        text29        051DE
__end_ofPL645                        text79        0527C
__end_ofPL647                        text84        02C70
__end_ofPL649                        text83        04488
__end_ofPL651                        text84        02C7E
__end_ofPL653                        text38        04644
__end_ofPL655                        text60        0310E
__end_ofPL657                        text20        03502
__end_ofPL659                        text60        0311C
__end_ofPL661                        text13        0427C
__end_ofPL663                        text79        05286
__end_ofPL665                        text84        02C88
__end_ofPL667                        text37        05934
__end_ofPL669                        text89        04A7E
__end_ofPL671                        text84        02C94
__end_ofPL673                        text98        06224
__end_ofPL675                        text12        059B8
__end_ofPL677                        text67        065C2
__end_ofPL679                        text23        060CC
__end_ofPL681                        text22        0639C
__end_ofPL683                        text89        04A8A
__end_ofPL685                        text15        03B28
__end_ofPL687                        text60        03126
__end_ofPL689                        text60        03130
__end_ofPL691                        text83        04492
__end_ofPL693                        text82        02598
__end_ofPL695                        text85        047C6
__end_ofPL697                        text21        04F42
__end_ofPL699                        text15        03B32
__end_ofPL701                        text84        02C9E
__end_ofPL703                        text20        0350C
__end_ofPL705                        text20        03516
__end_ofPL707                        text84        02CA8
__end_ofPL709                        text15        03B3C
__end_ofPL711                        text35        03858
__end_ofPL713                        text36        05F4E
__end_ofPL715                        text79        05290
__end_ofPL717                        text90        04E34
__end_ofPL719                        text78        05B22
__end_ofPL721                        text74        0608A
__end_ofPL723                        text84        02CB0
__end_ofPL725                        text6         055C8
__end_ofPL727                        text84        02CBA
__end_ofPL729                        text27        04BE8
__end_ofPL731                        text89        04A94
__end_ofPL733                        text60        0313A
__end_ofPL735                        text60        03144
__end_ofPL737                        text56        03DBE
__end_ofPL739                        text15        03B46
__end_ofPL741                        text15        03B50
__end_ofPL743                        text17        04024
__end_ofPL745                        text36        05F56
__end_ofPL747                        text6         055CE
__end_ofPL749                        text52        053E6
__end_ofPL751                        text50        0628C
__end_ofPL753                        text36        05F5E
__end_ofPL755                        text36        05F64
__end_ofPL757                        text26        05F18
__end_ofPL759                        text109       05490
__end_ofPL761                        text84        02CC2
__end_of_ADC_GetConversion           text104       06344
__end_of_ADC_Initialize              text9         066A8
__end_of_ARPV4_Init                  text54        06630
__end_of_ARPV4_Lookup                text94        05E34
__end_of_ARPV4_Packet                text35        03760
__end_of_ARPV4_Request               text89        049F4
__end_of_ARPV4_Update                text43        063C6
__end_of_DEMO_TCP_Client             text56        03D40
__end_of_DHCP_Handler                text17        0400A
__end_of_DHCP_Manage                 text37        0592A
__end_of_DHCP_Request                text38        0461A
__end_of_DHCP_WriteZeros             text42        0667C
__end_of_ETH_CheckLinkUp             text50        06286
__end_of_ETH_ComputeChecksum         text97        05520
__end_of_ETH_Copy                    text29        051D0
__end_of_ETH_Dump                    text24        062E8
__end_of_ETH_EdataRead               text102       00000
__end_of_ETH_EdataWrite              text100       00000
__end_of_ETH_EventHandler            text36        05F46
__end_of_ETH_Flush                   text34        05D32
__end_of_ETH_GetByteCount            text41        065A4
__end_of_ETH_GetMAC                  text93        061E4
__end_of_ETH_Init                    text47        04D0C
__end_of_ETH_Insert                  text99        0610C
__end_of_ETH_NextPacketUpdate        text33        05CA4
__end_of_ETH_Read16                  text23        060C0
__end_of_ETH_Read32                  text19        05C4E
__end_of_ETH_Read8                   text22        06390
__end_of_ETH_ReadBlock               text101       05BF6
__end_of_ETH_ResetByteCount          text91        0673A
__end_of_ETH_RxComputeChecksum       text32        06042
__end_of_ETH_SaveRDPT                text28        06712
__end_of_ETH_Send                    text98        06218
__end_of_ETH_TxComputeChecksum       text96        0581E
__end_of_ETH_Write16                 text88        066F2
__end_of_ETH_Write32                 text87        06664
__end_of_ETH_Write8                  text86        06730
__end_of_ETH_WriteBlock              text92        05FB0
__end_of_ETH_WriteStart              text90        04E12
__end_of_ETH_readLinkStatus          text51        00000
__end_of_ICMP_EchoReply              text27        04B9C
__end_of_ICMP_Receive                text26        05F10
__end_of_IPV4_GetMyIP                text55        066BA
__end_of_IPV4_Init                   text46        0671C
__end_of_IPV4_Packet                 text15        03A2A
__end_of_IPV4_PseudoHeaderChecksum   text25        05666
__end_of_IPV4_Send                   text95        05B88
__end_of_IPv4_Start                  text85        047BC
__end_of_LED_Init                    text8         06546
__end_of_MAC_getAddress              text49        06746
__end_of_Network_Init                text44        064B6
__end_of_Network_Manage              text12        059AC
__end_of_Network_Read                text14        0533C
__end_of_Network_WaitForLink         text11        066D6
__end_of_PHY_Read                    text52        053DE
__end_of_PHY_WaitForBusy             text53        00000
__end_of_PHY_Write                   text48        05D98
__end_of_SYSLOG_Init                 text10        062BA
__end_of_SYSLOG_Write                text30        06490
__end_of_TCB_Check                   text81        05A36
__end_of_TCB_Insert                  text74        06080
__end_of_TCB_Reset                   text103       04916
__end_of_TCP_Connect                 text79        05274
__end_of_TCP_FiniteStateMachine      text82        022F4
__end_of_TCP_GetReceivedData         text78        05B0E
__end_of_TCP_Init                    text45        065DE
__end_of_TCP_InsertRxBuffer          text77        05A96
__end_of_TCP_ParseTCPOptions         text21        04F38
__end_of_TCP_PayloadSave             text83        0442C
__end_of_TCP_Recv                    text20        03426
__end_of_TCP_Send                    text76        056F4
__end_of_TCP_SendDone                text75        0641A
__end_of_TCP_Snd                     text84        02A40
__end_of_TCP_SocketInit              text73        05786
__end_of_TCP_SocketPoll              text80        06502
__end_of_TCP_Update                  text13        0424A
__end_of_UDP_CallBackTable           smallconst    01039
__end_of_UDP_Receive                 text16        05112
__end_of_UDP_Send                    text40        0588E
__end_of_UDP_Start                   text39        05DE6
__end_of___lwdiv                     text65        05FFA
__end_of___lwmod                     text64        0614A
__end_of___wmul                      text63        064DC
__end_of__doprnt                     text60        0308E
__end_of__initialization             cinit         05E76
__end_of_broadcastMAC                smallconst    0102E
__end_of_dhcpName                    smallconst    01028
__end_of_dpowers                     smallconst    0100B
__end_of_hexpowers                   smallconst    01013
__end_of_high_isr                    intcode_body  06742
__end_of_initHW                      text2         061B8
__end_of_isdigit                     text62        065FA
__end_of_lcd_busy                    text72        06726
__end_of_lcd_goto1                   text1         066C8
__end_of_lcd_goto2                   text70        066E4
__end_of_lcd_init                    text6         055C2
__end_of_lcd_init_pins               text7         06708
__end_of_lcd_putch                   text68        06616
__end_of_lcd_puts                    text67        065B6
__end_of_lcd_write_ctrl              text71        06586
__end_of_lcd_write_data              text69        06566
__end_of_low_isr                     intcodelo     0003A
__end_of_macAddress                  smallconst    01034
__end_of_main                        text0         05042
__end_of_memcmp                      text18        05ECC
__end_of_memset                      text66        063F0
__end_of_printf                      text31        06526
__end_of_putch                       text61        0664A
__end_of_rtcc_handler                text112       0646A
__end_of_rtcc_init                   text5         06182
__end_of_spi_init                    text4         066FE
__end_of_sprintf                     text59        06316
__end_of_strlen                      text58        06442
__end_of_time                        text57        05CF8
__end_of_uart_init                   text3         06692
__end_ofi1_ETH_CheckLinkUp           text107       06372
__end_ofi1_ETH_EventHandler          text106       0625A
__end_ofi1_ETH_readLinkStatus        text108       00000
__end_ofi1_PHY_Read                  text109       05488
__end_ofi1_PHY_WaitForBusy           text110       00000
__initialization                     cinit         05E34
__mediumconst                        mediumconst   00000
__pbssBANK1                          bssBANK1      001BE
__pbssBANK2                          bssBANK2      00200
__pbssBANK3                          bssBANK3      00300
__pbssCOMRAM                         bssCOMRAM     00034
__pcinit                             cinit         05E34
__pcstackBANK0                       cstackBANK0   00060
__pcstackBANK1                       cstackBANK1   00100
__pcstackBANK2                       cstackBANK2   002BB
__pcstackCOMRAM                      cstackCOMRAM  00001
__pdataBANK0                         dataBANK0     000FF
__pidataBANK0                        idataBANK0    06746
__pintcode                           intcode       00008
__pintcode_body                      intcode_body  0673A
__pintcodelo                         intcodelo     00018
__pnvBANK2                           nvBANK2       002E8
__psmallconst                        smallconst    01000
__ptext0                             text0         04F42
__ptext1                             text1         066BA
__ptext10                            text10        0628C
__ptext100                           text100       00000
__ptext101                           text101       05B92
__ptext102                           text102       00000
__ptext103                           text103       047C6
__ptext104                           text104       06316
__ptext106                           text106       06224
__ptext107                           text107       06344
__ptext108                           text108       00000
__ptext109                           text109       053E6
__ptext11                            text11        066C8
__ptext110                           text110       00000
__ptext112                           text112       06442
__ptext113                           text113       00000
__ptext12                            text12        05934
__ptext13                            text13        04024
__ptext14                            text14        05290
__ptext15                            text15        03858
__ptext16                            text16        0504E
__ptext17                            text17        03DBE
__ptext18                            text18        05E80
__ptext19                            text19        05BF6
__ptext2                             text2         06182
__ptext20                            text20        03144
__ptext21                            text21        04E34
__ptext22                            text22        06372
__ptext23                            text23        0608A
__ptext24                            text24        062BA
__ptext25                            text25        055CE
__ptext26                            text26        05ECC
__ptext27                            text27        04A94
__ptext28                            text28        06708
__ptext29                            text29        05126
__ptext3                             text3         0667C
__ptext30                            text30        0646A
__ptext31                            text31        06502
__ptext32                            text32        05FFA
__ptext33                            text33        05C4E
__ptext34                            text34        05CF8
__ptext35                            text35        03516
__ptext36                            text36        05F18
__ptext37                            text37        058AA
__ptext38                            text38        04492
__ptext39                            text39        05D98
__ptext4                             text4         066F2
__ptext40                            text40        0581E
__ptext41                            text41        06586
__ptext42                            text42        06664
__ptext43                            text43        0639C
__ptext44                            text44        06490
__ptext45                            text45        065C2
__ptext46                            text46        06712
__ptext47                            text47        04BE8
__ptext48                            text48        05D48
__ptext49                            text49        06742
__ptext5                             text5         0614A
__ptext50                            text50        0625A
__ptext51                            text51        00000
__ptext52                            text52        0533C
__ptext53                            text53        00000
__ptext54                            text54        06616
__ptext55                            text55        066A8
__ptext56                            text56        03B50
__ptext57                            text57        05CA4
__ptext58                            text58        0641A
__ptext59                            text59        062E8
__ptext6                             text6         05530
__ptext60                            text60        02CC2
__ptext61                            text61        06630
__ptext62                            text62        065DE
__ptext63                            text63        064B6
__ptext64                            text64        0610C
__ptext65                            text65        05FB0
__ptext66                            text66        063C6
__ptext67                            text67        065A4
__ptext68                            text68        065FA
__ptext69                            text69        06546
__ptext7                             text7         066FE
__ptext70                            text70        066D6
__ptext71                            text71        06566
__ptext72                            text72        0671C
__ptext73                            text73        056FE
__ptext74                            text74        06042
__ptext75                            text75        063F0
__ptext76                            text76        05666
__ptext77                            text77        05A36
__ptext78                            text78        05AAC
__ptext79                            text79        051DE
__ptext8                             text8         06526
__ptext80                            text80        064DC
__ptext81                            text81        059B8
__ptext82                            text82        010FA
__ptext83                            text83        0427C
__ptext84                            text84        02598
__ptext85                            text85        04644
__ptext86                            text86        06726
__ptext87                            text87        0664A
__ptext88                            text88        066E4
__ptext89                            text89        04930
__ptext9                             text9         06692
__ptext90                            text90        04D14
__ptext91                            text91        06730
__ptext92                            text92        05F64
__ptext93                            text93        061B8
__ptext94                            text94        05DE6
__ptext95                            text95        05B22
__ptext96                            text96        05790
__ptext97                            text97        05490
__ptext98                            text98        061EE
__ptext99                            text99        060CC
__ramtop                             ramtop        01000
__size_of_ADC_GetConversion          (abs)         00000
__size_of_ADC_Initialize             (abs)         00000
__size_of_ARPV4_Init                 (abs)         00000
__size_of_ARPV4_Lookup               (abs)         00000
__size_of_ARPV4_Packet               (abs)         00000
__size_of_ARPV4_Request              (abs)         00000
__size_of_ARPV4_Update               (abs)         00000
__size_of_DEMO_TCP_Client            (abs)         00000
__size_of_DHCP_Handler               (abs)         00000
__size_of_DHCP_Manage                (abs)         00000
__size_of_DHCP_Request               (abs)         00000
__size_of_DHCP_WriteZeros            (abs)         00000
__size_of_ETH_CheckLinkUp            (abs)         00000
__size_of_ETH_ComputeChecksum        (abs)         00000
__size_of_ETH_Copy                   (abs)         00000
__size_of_ETH_Dump                   (abs)         00000
__size_of_ETH_EdataRead              (abs)         00000
__size_of_ETH_EdataWrite             (abs)         00000
__size_of_ETH_EventHandler           (abs)         00000
__size_of_ETH_Flush                  (abs)         00000
__size_of_ETH_GetByteCount           (abs)         00000
__size_of_ETH_GetMAC                 (abs)         00000
__size_of_ETH_Init                   (abs)         00000
__size_of_ETH_Insert                 (abs)         00000
__size_of_ETH_NextPacketUpdate       (abs)         00000
__size_of_ETH_Read16                 (abs)         00000
__size_of_ETH_Read32                 (abs)         00000
__size_of_ETH_Read8                  (abs)         00000
__size_of_ETH_ReadBlock              (abs)         00000
__size_of_ETH_ResetByteCount         (abs)         00000
__size_of_ETH_RxComputeChecksum      (abs)         00000
__size_of_ETH_SaveRDPT               (abs)         00000
__size_of_ETH_Send                   (abs)         00000
__size_of_ETH_TxComputeChecksum      (abs)         00000
__size_of_ETH_Write16                (abs)         00000
__size_of_ETH_Write32                (abs)         00000
__size_of_ETH_Write8                 (abs)         00000
__size_of_ETH_WriteBlock             (abs)         00000
__size_of_ETH_WriteStart             (abs)         00000
__size_of_ETH_readLinkStatus         (abs)         00000
__size_of_ICMP_EchoReply             (abs)         00000
__size_of_ICMP_Receive               (abs)         00000
__size_of_IPV4_GetMyIP               (abs)         00000
__size_of_IPV4_Init                  (abs)         00000
__size_of_IPV4_Packet                (abs)         00000
__size_of_IPV4_PseudoHeaderChecksum  (abs)         00000
__size_of_IPV4_Send                  (abs)         00000
__size_of_IPv4_Start                 (abs)         00000
__size_of_LED_Init                   (abs)         00000
__size_of_MAC_getAddress             (abs)         00000
__size_of_Network_Init               (abs)         00000
__size_of_Network_Manage             (abs)         00000
__size_of_Network_Read               (abs)         00000
__size_of_Network_WaitForLink        (abs)         00000
__size_of_PHY_Read                   (abs)         00000
__size_of_PHY_WaitForBusy            (abs)         00000
__size_of_PHY_Write                  (abs)         00000
__size_of_SYSLOG_Init                (abs)         00000
__size_of_SYSLOG_Write               (abs)         00000
__size_of_TCB_Check                  (abs)         00000
__size_of_TCB_Insert                 (abs)         00000
__size_of_TCB_Reset                  (abs)         00000
__size_of_TCP_Connect                (abs)         00000
__size_of_TCP_FiniteStateMachine     (abs)         00000
__size_of_TCP_GetReceivedData        (abs)         00000
__size_of_TCP_Init                   (abs)         00000
__size_of_TCP_InsertRxBuffer         (abs)         00000
__size_of_TCP_ParseTCPOptions        (abs)         00000
__size_of_TCP_PayloadSave            (abs)         00000
__size_of_TCP_Recv                   (abs)         00000
__size_of_TCP_Send                   (abs)         00000
__size_of_TCP_SendDone               (abs)         00000
__size_of_TCP_Snd                    (abs)         00000
__size_of_TCP_SocketInit             (abs)         00000
__size_of_TCP_SocketPoll             (abs)         00000
__size_of_TCP_Update                 (abs)         00000
__size_of_UDP_Receive                (abs)         00000
__size_of_UDP_Send                   (abs)         00000
__size_of_UDP_Start                  (abs)         00000
__size_of___lwdiv                    (abs)         00000
__size_of___lwmod                    (abs)         00000
__size_of___wmul                     (abs)         00000
__size_of__doprnt                    (abs)         00000
__size_of_high_isr                   (abs)         00000
__size_of_initHW                     (abs)         00000
__size_of_isdigit                    (abs)         00000
__size_of_lcd_busy                   (abs)         00000
__size_of_lcd_goto1                  (abs)         00000
__size_of_lcd_goto2                  (abs)         00000
__size_of_lcd_init                   (abs)         00000
__size_of_lcd_init_pins              (abs)         00000
__size_of_lcd_putch                  (abs)         00000
__size_of_lcd_puts                   (abs)         00000
__size_of_lcd_write_ctrl             (abs)         00000
__size_of_lcd_write_data             (abs)         00000
__size_of_low_isr                    (abs)         00000
__size_of_main                       (abs)         00000
__size_of_memcmp                     (abs)         00000
__size_of_memset                     (abs)         00000
__size_of_printf                     (abs)         00000
__size_of_putch                      (abs)         00000
__size_of_rtcc_handler               (abs)         00000
__size_of_rtcc_init                  (abs)         00000
__size_of_spi_init                   (abs)         00000
__size_of_sprintf                    (abs)         00000
__size_of_strlen                     (abs)         00000
__size_of_time                       (abs)         00000
__size_of_uart_init                  (abs)         00000
__size_ofi1_ETH_CheckLinkUp          (abs)         00000
__size_ofi1_ETH_EventHandler         (abs)         00000
__size_ofi1_ETH_readLinkStatus       (abs)         00000
__size_ofi1_PHY_Read                 (abs)         00000
__size_ofi1_PHY_WaitForBusy          (abs)         00000
__smallconst                         smallconst    01000
_arpMap                              bssBANK3      00300
_arpTimer                            bssBANK1      001E9
_broadcastMAC                        smallconst    01028
_clientState                         dataBANK0     000FF
_currentTCB                          bssCOMRAM     00040
_deviceTime                          nvBANK2       002E8
_dhcpLeaseTime                       bssCOMRAM     00034
_dhcpName                            smallconst    01013
_dhcpServerId                        bssBANK2      00220
_dpowers                             smallconst    01001
_errataTemp                          (abs)         00E7E
_ethData                             bssBANK1      001BE
_hexpowers                           smallconst    0100B
_high_isr                            intcode       00008
_initHW                              text2         06182
_inlined$_ETH_EdataRead              (abs)         00001
_inlined$_ETH_EdataWrite             (abs)         00001
_inlined$_ETH_readLinkStatus         (abs)         00001
_inlined$_PHY_WaitForBusy            (abs)         00001
_inlined$i1_ETH_readLinkStatus       (abs)         00001
_inlined$i1_PHY_WaitForBusy          (abs)         00001
_ipv4Address                         bssCOMRAM     00038
_ipv4DNS                             bssBANK2      00210
_ipv4Header                          bssBANK2      00299
_ipv4Router                          bssBANK2      00224
_ipv4SubnetMask                      bssBANK1      001C5
_isdigit                             text62        065DE
_isdigit$4432                        cstackCOMRAM  00018
_lcd_busy                            text72        0671C
_lcd_goto1                           text1         066BA
_lcd_goto2                           text70        066D6
_lcd_init                            text6         05530
_lcd_init_pins                       text7         066FE
_lcd_putch                           text68        065FA
_lcd_puts                            text67        065A4
_lcd_write_ctrl                      text71        06566
_lcd_write_data                      text69        06546
_led_values                          bssBANK2      00200
_localTime                           nvBANK2       002EC
_low_isr                             intcodelo     00018
_macAddress                          smallconst    0102E
_main                                text0         04F42
_memcmp                              text18        05E80
_memset                              text66        063C6
_nextAvailablePort                   bssBANK1      001CD
_nextPacketPointer                   bssCOMRAM     00042
_nextSequenceNumber                  bssBANK2      00228
_printf                              text31        06502
_putch                               text61        06630
_rcvPayloadLen                       bssBANK1      001CF
_receivedRemoteAddress               bssCOMRAM     0003C
_remoteIpv4Address                   bssBANK2      0022C
_remoteSocket                        bssBANK2      002B5
_rtcc_handler                        text112       06442
_rtcc_init                           text5         0614A
_rxPacketStatusVector                bssBANK1      001C9
_spi_init                            text4         066F2
_sprintf                             text59        062E8
_strlen                              text58        0641A
_tcbList                             bssCOMRAM     00044
_tcbListSize                         bssCOMRAM     00048
_tcpHeader                           bssBANK1      001D1
_tcpMss                              bssCOMRAM     00046
_time                                text57        05CA4
_uart_init                           text3         0667C
_udpHeader                           bssBANK2      002AD
btemp                                temp          00049
end_of_initialization                cinit         05E76
i1ETH_CheckLinkUp@value              cstackCOMRAM  00010
i1PHY_Read@reg                       cstackCOMRAM  00007
i1PHY_Read@ret                       cstackCOMRAM  00008
i1PHY_WaitForBusy@ret                cstackCOMRAM  00001
i1PHY_WaitForBusy@timeout            cstackCOMRAM  00002
i1_ETH_CheckLinkUp                   text107       06344
i1_ETH_EventHandler                  text106       06224
i1_ETH_readLinkStatus                text108       00000
i1_PHY_Read                          text109       053E6
i1_PHY_WaitForBusy                   text110       00000
int$flags                            temp          00049
int_func                             intcode_body  0673A
intlevel0                            text          00000
intlevel1                            text          00000
intlevel2                            text          00000
intlevel3                            text          00000
isdigit@c                            cstackCOMRAM  00019
lcd_goto1@pos                        cstackCOMRAM  00018
lcd_goto2@pos                        cstackCOMRAM  00018
lcd_putch@c                          cstackCOMRAM  00018
lcd_puts@s                           cstackCOMRAM  00019
lcd_write_ctrl@c                     cstackCOMRAM  00017
lcd_write_data@d                     cstackCOMRAM  00017
main@ip                              cstackBANK2   002E4
main@no_ip_display                   cstackBANK2   002C3
main@now_p                           cstackBANK2   002BF
main@old_ip                          cstackBANK2   002BB
main@str                             cstackBANK2   002C4
memcmp@n                             cstackCOMRAM  00018
memcmp@s1                            cstackCOMRAM  0001C
memcmp@s2                            cstackCOMRAM  00017
memset@c                             cstackCOMRAM  00019
memset@n                             cstackCOMRAM  0001B
memset@p                             cstackCOMRAM  0001D
memset@p1                            cstackCOMRAM  00017
printf@ap                            cstackCOMRAM  0002E
printf@f                             cstackCOMRAM  0002D
printf@pb                            cstackCOMRAM  0002F
putch@data                           cstackCOMRAM  00017
sprintf@ap                           cstackBANK0   0006D
sprintf@f                            cstackCOMRAM  0002B
sprintf@pb                           cstackBANK0   0006E
sprintf@wh                           cstackCOMRAM  00029
stackhi                              (abs)         00E7D
stacklo                              (abs)         003B8
start                                init          0003A
start_initialization                 cinit         05E34
strlen@cp                            cstackCOMRAM  00019
strlen@s                             cstackCOMRAM  00017
time@gie_val                         cstackCOMRAM  0001B
time@t                               cstackCOMRAM  00017
time@the_time                        cstackCOMRAM  0001C


FUNCTION INFORMATION:

 *************** function _main *****************
 Defined at:
		line 180 in file "main.c"
 Parameters:    Size  Location     Type
		None
 Auto vars:     Size  Location     Type
  now_p           4    4[BANK2 ] long 
  str            32    9[BANK2 ] unsigned char [32]
  ip              4   41[BANK2 ] unsigned long 
  old_ip          4    0[BANK2 ] unsigned long 
  no_ip_displa    1    8[BANK2 ] unsigned char 
 Return value:  Size  Location     Type
		None               void
 Registers used:
		wreg, fsr0l, fsr0h, fsr1l, fsr1h, fsr1l, fsr1h, fsr2l, fsr2h, status,2, status,0, pclat, btemp, btemp+1, btemp+2, btemp+3, btemp+4, btemp+5, btemp+6, btemp+7, btemp+8, btemp+9, btemp+10, btemp+11, tosl, structret, tblptrl, tblptrh, tblptru, prodl, prodh, bsr, cstack
 Tracked objects:
		On entry : 
		On exit  : 
		Unchanged: 
 Data sizes:     COMRAM   BANK0   BANK1   BANK2   BANK3   BANK4   BANK5   BANK6   BANK7   BANK8   BANK9  BANK10  BANK11  BANK12  BANK13  BANK14  BANK15
      Params:         0       0       0       0       0       0       0       0       0       0       0       0       0       0       0       0       0
      Locals:         0       0       0      45       0       0       0       0       0       0       0       0       0       0       0       0       0
      Temps:          0       0       0       0       0       0       0       0       0       0       0       0       0       0       0       0       0
      Totals:         0       0       0      45       0       0       0       0       0       0       0       0       0       0       0       0       0
Total ram usage:       45 bytes
 Hardware stack levels required when called:   19
 This function calls:
		_DEMO_TCP_Client
		_IPV4_GetMyIP
		_Network_Init
		_Network_Manage
		_Network_WaitForLink
		_SYSLOG_Init
		_SYSLOG_Write
		_initHW
		_lcd_goto1
		_lcd_puts
		_memset
		_sprintf
		_time
 This function is called by:
		Startup code after reset
 This function uses a non-reentrant model


 *************** function _lcd_goto1 *****************
 Defined at:
		line 96 in file "../board_support_package/picdem2_net/lcd.c"
 Parameters:    Size  Location     Type
  pos             1    wreg     unsigned char 
 Auto vars:     Size  Location     Type
  pos             1   23[COMRAM] unsigned char 
 Return value:  Size  Location     Type
		None               void
 Registers used:
		wreg, status,2, status,0, cstack
 Tracked objects:
		On entry : 
		On exit  : 
		Unchanged: 
 Data sizes:     COMRAM   BANK0   BANK1   BANK2   BANK3   BANK4   BANK5   BANK6   BANK7   BANK8   BANK9  BANK10  BANK11  BANK12  BANK13  BANK14  BANK15
      Params:         0       0       0       0       0       0       0       0       0       0       0       0       0       0       0       0       0
      Locals:         1       0       0       0       0       0       0       0       0       0       0       0       0       0       0       0       0
      Temps:          0       0       0       0       0       0       0       0       0       0       0       0       0       0       0       0       0
      Totals:         1       0       0       0       0       0       0       0       0       0       0       0       0       0       0       0       0
Total ram usage:        1 bytes
 Hardware stack levels used:    1
 Hardware stack levels required when called:    9
 This function calls:
		_lcd_busy
		_lcd_write_ctrl
 This function is called by:
		_main
 This function uses a non-reentrant model


 *************** function _initHW *****************
 Defined at:
		line 50 in file "../board_support_package/picdem2_net/hardware.c"
 Parameters:    Size  Location     Type
		None
 Auto vars:     Size  Location     Type
		None
 Return value:  Size  Location     Type
		None               void
 Registers used:
		wreg, fsr2l, fsr2h, status,2, status,0, prodl, prodh, cstack
 Tracked objects:
		On entry : 
		On exit  : 
		Unchanged: 
 Data sizes:     COMRAM   BANK0   BANK1   BANK2   BANK3   BANK4   BANK5   BANK6   BANK7   BANK8   BANK9  BANK10  BANK11  BANK12  BANK13  BANK14  BANK15
      Params:         0       0       0       0       0       0       0       0       0       0       0       0       0       0       0       0       0
      Locals:         0       0       0       0       0       0       0       0       0       0       0       0       0       0       0       0       0
      Temps:          0       0       0       0       0       0       0       0       0       0       0       0       0       0       0       0       0
      Totals:         0       0       0       0       0       0       0       0       0       0       0       0       0       0       0       0       0
Total ram usage:        0 bytes
 Hardware stack levels used:    1
 Hardware stack levels required when called:   10
 This function calls:
		_ADC_Initialize
		_LED_Init
		_lcd_init
		_rtcc_init
		_spi_init
		_uart_init
 This function is called by:
		_main
 This function uses a non-reentrant model


 *************** function _uart_init *****************
 Defined at:
		line 55 in file "../board_support_package/picdem2_net/uart.c"
 Parameters:    Size  Location     Type
		None
 Auto vars:     Size  Location     Type
		None
 Return value:  Size  Location     Type
		None               void
 Registers used:
		wreg, status,2
 Tracked objects:
		On entry : 
		On exit  : 
		Unchanged: 
 Data sizes:     COMRAM   BANK0   BANK1   BANK2   BANK3   BANK4   BANK5   BANK6   BANK7   BANK8   BANK9  BANK10  BANK11  BANK12  BANK13  BANK14  BANK15
      Params:         0       0       0       0       0       0       0       0       0       0       0       0       0       0       0       0       0
      Locals:         0       0       0       0       0       0       0       0       0       0       0       0       0       0       0       0       0
      Temps:          0       0       0       0       0       0       0       0       0       0       0       0       0       0       0       0       0
      Totals:         0       0       0       0       0       0       0       0       0       0       0       0       0       0       0       0       0
Total ram usage:        0 bytes
 Hardware stack levels used:    1
 Hardware stack levels required when called:    8
 This function calls:
		Nothing
 This function is called by:
		_initHW
 This function uses a non-reentrant model


 *************** function _spi_init *****************
 Defined at:
		line 46 in file "../board_support_package/picdem2_net/mssp_spi_master.c"
 Parameters:    Size  Location     Type
		None
 Auto vars:     Size  Location     Type
		None
 Return value:  Size  Location     Type
		None               void
 Registers used:
		wreg, status,2
 Tracked objects:
		On entry : 
		On exit  : 
		Unchanged: 
 Data sizes:     COMRAM   BANK0   BANK1   BANK2   BANK3   BANK4   BANK5   BANK6   BANK7   BANK8   BANK9  BANK10  BANK11  BANK12  BANK13  BANK14  BANK15
      Params:         0       0       0       0       0       0       0       0       0       0       0       0       0       0       0       0       0
      Locals:         0       0       0       0       0       0       0       0       0       0       0       0       0       0       0       0       0
      Temps:          0       0       0       0       0       0       0       0       0       0       0       0       0       0       0       0       0
      Totals:         0       0       0       0       0       0       0       0       0       0       0       0       0       0       0       0       0
Total ram usage:        0 bytes
 Hardware stack levels used:    1
 Hardware stack levels required when called:    8
 This function calls:
		Nothing
 This function is called by:
		_initHW
 This function uses a non-reentrant model


 *************** function _rtcc_init *****************
 Defined at:
		line 77 in file "../board_support_package/picdem2_net/rtcc.c"
 Parameters:    Size  Location     Type
		None
 Auto vars:     Size  Location     Type
		None
 Return value:  Size  Location     Type
		None               void
 Registers used:
		wreg, status,2
 Tracked objects:
		On entry : 
		On exit  : 
		Unchanged: 
 Data sizes:     COMRAM   BANK0   BANK1   BANK2   BANK3   BANK4   BANK5   BANK6   BANK7   BANK8   BANK9  BANK10  BANK11  BANK12  BANK13  BANK14  BANK15
      Params:         0       0       0       0       0       0       0       0       0       0       0       0       0       0       0       0       0
      Locals:         0       0       0       0       0       0       0       0       0       0       0       0       0       0       0       0       0
      Temps:          0       0       0       0       0       0       0       0       0       0       0       0       0       0       0       0       0
      Totals:         0       0       0       0       0       0       0       0       0       0       0       0       0       0       0       0       0
Total ram usage:        0 bytes
 Hardware stack levels used:    1
 Hardware stack levels required when called:    8
 This function calls:
		Nothing
 This function is called by:
		_initHW
 This function uses a non-reentrant model


 *************** function _lcd_init *****************
 Defined at:
		line 110 in file "../board_support_package/picdem2_net/lcd.c"
 Parameters:    Size  Location     Type
		None
 Auto vars:     Size  Location     Type
  y               2    0        volatile int 
  x               2    0        volatile int 
 Return value:  Size  Location     Type
		None               void
 Registers used:
		wreg, cstack
 Tracked objects:
		On entry : 
		On exit  : 
		Unchanged: 
 Data sizes:     COMRAM   BANK0   BANK1   BANK2   BANK3   BANK4   BANK5   BANK6   BANK7   BANK8   BANK9  BANK10  BANK11  BANK12  BANK13  BANK14  BANK15
      Params:         0       0       0       0       0       0       0       0       0       0       0       0       0       0       0       0       0
      Locals:         0       0       0       0       0       0       0       0       0       0       0       0       0       0       0       0       0
      Temps:          1       0       0       0       0       0       0       0       0       0       0       0       0       0       0       0       0
      Totals:         1       0       0       0       0       0       0       0       0       0       0       0       0       0       0       0       0
Total ram usage:        1 bytes
 Hardware stack levels used:    1
 Hardware stack levels required when called:    9
 This function calls:
		_lcd_busy
		_lcd_init_pins
		_lcd_write_ctrl
 This function is called by:
		_initHW
 This function uses a non-reentrant model


 *************** function _lcd_init_pins *****************
 Defined at:
		line 50 in file "../board_support_package/picdem2_net/lcd_hw.c"
 Parameters:    Size  Location     Type
		None
 Auto vars:     Size  Location     Type
		None
 Return value:  Size  Location     Type
		None               void
 Registers used:
		None
 Tracked objects:
		On entry : 
		On exit  : 
		Unchanged: 
 Data sizes:     COMRAM   BANK0   BANK1   BANK2   BANK3   BANK4   BANK5   BANK6   BANK7   BANK8   BANK9  BANK10  BANK11  BANK12  BANK13  BANK14  BANK15
      Params:         0       0       0       0       0       0       0       0       0       0       0       0       0       0       0       0       0
      Locals:         0       0       0       0       0       0       0       0       0       0       0       0       0       0       0       0       0
      Temps:          0       0       0       0       0       0       0       0       0       0       0       0       0       0       0       0       0
      Totals:         0       0       0       0       0       0       0       0       0       0       0       0       0       0       0       0       0
Total ram usage:        0 bytes
 Hardware stack levels used:    1
 Hardware stack levels required when called:    8
 This function calls:
		Nothing
 This function is called by:
		_lcd_init
 This function uses a non-reentrant model


 *************** function _LED_Init *****************
 Defined at:
		line 55 in file "../board_support_package/picdem2_net/led_driver.c"
 Parameters:    Size  Location     Type
		None
 Auto vars:     Size  Location     Type
  x               1   22[COMRAM] unsigned char 
 Return value:  Size  Location     Type
		None               void
 Registers used:
		wreg, fsr2l, fsr2h, status,2, status,0, prodl, prodh
 Tracked objects:
		On entry : 
		On exit  : 
		Unchanged: 
 Data sizes:     COMRAM   BANK0   BANK1   BANK2   BANK3   BANK4   BANK5   BANK6   BANK7   BANK8   BANK9  BANK10  BANK11  BANK12  BANK13  BANK14  BANK15
      Params:         0       0       0       0       0       0       0       0       0       0       0       0       0       0       0       0       0
      Locals:         1       0       0       0       0       0       0       0       0       0       0       0       0       0       0       0       0
      Temps:          0       0       0       0       0       0       0       0       0       0       0       0       0       0       0       0       0
      Totals:         1       0       0       0       0       0       0       0       0       0       0       0       0       0       0       0       0
Total ram usage:        1 bytes
 Hardware stack levels used:    1
 Hardware stack levels required when called:    8
 This function calls:
		Nothing
 This function is called by:
		_initHW
 This function uses a non-reentrant model


 *************** function _ADC_Initialize *****************
 Defined at:
		line 55 in file "../board_support_package/picdem2_net/adc.c"
 Parameters:    Size  Location     Type
		None
 Auto vars:     Size  Location     Type
		None
 Return value:  Size  Location     Type
		None               void
 Registers used:
		wreg, status,2
 Tracked objects:
		On entry : 
		On exit  : 
		Unchanged: 
 Data sizes:     COMRAM   BANK0   BANK1   BANK2   BANK3   BANK4   BANK5   BANK6   BANK7   BANK8   BANK9  BANK10  BANK11  BANK12  BANK13  BANK14  BANK15
      Params:         0       0       0       0       0       0       0       0       0       0       0       0       0       0       0       0       0
      Locals:         0       0       0       0       0       0       0       0       0       0       0       0       0       0       0       0       0
      Temps:          0       0       0       0       0       0       0       0       0       0       0       0       0       0       0       0       0
      Totals:         0       0       0       0       0       0       0       0       0       0       0       0       0       0       0       0       0
Total ram usage:        0 bytes
 Hardware stack levels used:    1
 Hardware stack levels required when called:    8
 This function calls:
		Nothing
 This function is called by:
		_initHW
 This function uses a non-reentrant model


 *************** function _SYSLOG_Init *****************
 Defined at:
		line 43 in file "../../TCPIP Library/source/syslog.c"
 Parameters:    Size  Location     Type
		None
 Auto vars:     Size  Location     Type
  t               4   13[BANK0 ] unsigned long 
 Return value:  Size  Location     Type
		None               void
 Registers used:
		wreg, fsr0l, fsr0h, fsr2l, fsr2h, status,2, status,0, pclat, tosl, tblptrl, tblptrh, tblptru, prodl, prodh, cstack
 Tracked objects:
		On entry : 
		On exit  : 
		Unchanged: 
 Data sizes:     COMRAM   BANK0   BANK1   BANK2   BANK3   BANK4   BANK5   BANK6   BANK7   BANK8   BANK9  BANK10  BANK11  BANK12  BANK13  BANK14  BANK15
      Params:         0       0       0       0       0       0       0       0       0       0       0       0       0       0       0       0       0
      Locals:         0       4       0       0       0       0       0       0       0       0       0       0       0       0       0       0       0
      Temps:          0       0       0       0       0       0       0       0       0       0       0       0       0       0       0       0       0
      Totals:         0       4       0       0       0       0       0       0       0       0       0       0       0       0       0       0       0
Total ram usage:        4 bytes
 Hardware stack levels used:    1
 Hardware stack levels required when called:   11
 This function calls:
		_printf
		_time
 This function is called by:
		_main
 This function uses a non-reentrant model


 *************** function _Network_WaitForLink *****************
 Defined at:
		line 76 in file "../../TCPIP Library/source/network.c"
 Parameters:    Size  Location     Type
		None
 Auto vars:     Size  Location     Type
		None
 Return value:  Size  Location     Type
		None               void
 Registers used:
		wreg, status,2, status,0, cstack
 Tracked objects:
		On entry : 
		On exit  : 
		Unchanged: 
 Data sizes:     COMRAM   BANK0   BANK1   BANK2   BANK3   BANK4   BANK5   BANK6   BANK7   BANK8   BANK9  BANK10  BANK11  BANK12  BANK13  BANK14  BANK15
      Params:         0       0       0       0       0       0       0       0       0       0       0       0       0       0       0       0       0
      Locals:         0       0       0       0       0       0       0       0       0       0       0       0       0       0       0       0       0
      Temps:          0       0       0       0       0       0       0       0       0       0       0       0       0       0       0       0       0
      Totals:         0       0       0       0       0       0       0       0       0       0       0       0       0       0       0       0       0
Total ram usage:        0 bytes
 Hardware stack levels used:    1
 Hardware stack levels required when called:   12
 This function calls:
		_ETH_CheckLinkUp
 This function is called by:
		_main
 This function uses a non-reentrant model


 *************** function _Network_Manage *****************
 Defined at:
		line 81 in file "../../TCPIP Library/source/network.c"
 Parameters:    Size  Location     Type
		None
 Auto vars:     Size  Location     Type
  now             4  186[BANK1 ] long 
 Return value:  Size  Location     Type
		None               void
 Registers used:
		wreg, fsr0l, fsr0h, fsr1l, fsr1h, fsr1l, fsr1h, fsr2l, fsr2h, status,2, status,0, pclat, btemp, btemp+1, btemp+2, btemp+3, btemp+4, btemp+5, btemp+6, btemp+7, btemp+8, btemp+9, btemp+10, btemp+11, tosl, structret, tblptrl, tblptrh, tblptru, prodl, prodh, bsr, cstack
 Tracked objects:
		On entry : 
		On exit  : 
		Unchanged: 
 Data sizes:     COMRAM   BANK0   BANK1   BANK2   BANK3   BANK4   BANK5   BANK6   BANK7   BANK8   BANK9  BANK10  BANK11  BANK12  BANK13  BANK14  BANK15
      Params:         0       0       0       0       0       0       0       0       0       0       0       0       0       0       0       0       0
      Locals:         0       0       4       0       0       0       0       0       0       0       0       0       0       0       0       0       0
      Temps:          0       0       1       0       0       0       0       0       0       0       0       0       0       0       0       0       0
      Totals:         0       0       5       0       0       0       0       0       0       0       0       0       0       0       0       0       0
Total ram usage:        5 bytes
 Hardware stack levels used:    1
 Hardware stack levels required when called:   18
 This function calls:
		_ARPV4_Update
		_DHCP_Manage
		_ETH_EventHandler
		_Network_Read
		_TCP_Update
		_time
 This function is called by:
		_main
 This function uses a non-reentrant model


 *************** function _TCP_Update *****************
 Defined at:
		line 1417 in file "../../TCPIP Library/source/tcpv4.c"
 Parameters:    Size  Location     Type
		None
 Auto vars:     Size  Location     Type
  tcbPtr          2   27[BANK1 ] PTR struct .
		 -> ?_sprintf(2), ?_printf(2), main@str(32), STR_8(13), 
		 -> STR_7(17), DEMO_TCP_Client@txdataPort60(80), DEMO_TCP_Client@strTmp(17), DEMO_TCP_Client@rxdataPort60(50), 
		 -> DEMO_TCP_Client@port60TCB(55), Network_Read@debug_str(80), STR_1(15), NULL(0), 
  count           2   25[BANK1 ] int 
 Return value:  Size  Location     Type
		None               void
 Registers used:
		wreg, fsr0l, fsr0h, fsr2l, fsr2h, status,2, status,0, tblptrl, tblptrh, tblptru, cstack
 Tracked objects:
		On entry : 
		On exit  : 
		Unchanged: 
 Data sizes:     COMRAM   BANK0   BANK1   BANK2   BANK3   BANK4   BANK5   BANK6   BANK7   BANK8   BANK9  BANK10  BANK11  BANK12  BANK13  BANK14  BANK15
      Params:         0       0       0       0       0       0       0       0       0       0       0       0       0       0       0       0       0
      Locals:         0       0       4       0       0       0       0       0       0       0       0       0       0       0       0       0       0
      Temps:          0       0       8       0       0       0       0       0       0       0       0       0       0       0       0       0       0
      Totals:         0       0      12       0       0       0       0       0       0       0       0       0       0       0       0       0       0
Total ram usage:       12 bytes
 Hardware stack levels used:    1
 Hardware stack levels required when called:   15
 This function calls:
		_TCP_FiniteStateMachine
 This function is called by:
		_Network_Manage
 This function uses a non-reentrant model


 *************** function _Network_Read *****************
 Defined at:
		line 105 in file "../../TCPIP Library/source/network.c"
 Parameters:    Size  Location     Type
		None
 Auto vars:     Size  Location     Type
  debug_str      80   91[BANK1 ] unsigned char [80]
  header         14  171[BANK1 ] struct .
 Return value:  Size  Location     Type
		None               void
 Registers used:
		wreg, fsr0l, fsr0h, fsr1l, fsr1h, fsr1l, fsr1h, fsr2l, fsr2h, status,2, status,0, pclat, btemp, btemp+1, btemp+2, btemp+3, btemp+4, btemp+5, btemp+6, btemp+7, btemp+8, btemp+9, btemp+10, btemp+11, tosl, structret, tblptrl, tblptrh, tblptru, prodl, prodh, bsr, cstack
 Tracked objects:
		On entry : 
		On exit  : 
		Unchanged: 
 Data sizes:     COMRAM   BANK0   BANK1   BANK2   BANK3   BANK4   BANK5   BANK6   BANK7   BANK8   BANK9  BANK10  BANK11  BANK12  BANK13  BANK14  BANK15
      Params:         0       0       0       0       0       0       0       0       0       0       0       0       0       0       0       0       0
      Locals:         0       0      94       0       0       0       0       0       0       0       0       0       0       0       0       0       0
      Temps:          0       0       4       0       0       0       0       0       0       0       0       0       0       0       0       0       0
      Totals:         0       0      98       0       0       0       0       0       0       0       0       0       0       0       0       0       0
Total ram usage:       98 bytes
 Hardware stack levels used:    1
 Hardware stack levels required when called:   17
 This function calls:
		_ARPV4_Packet
		_ETH_Flush
		_ETH_NextPacketUpdate
		_ETH_ReadBlock
		_IPV4_Packet
		_sprintf
 This function is called by:
		_Network_Manage
 This function uses a non-reentrant model


 *************** function _IPV4_Packet *****************
 Defined at:
		line 115 in file "../../TCPIP Library/source/ipv4.c"
 Parameters:    Size  Location     Type
		None
 Auto vars:     Size  Location     Type
  msg            40    0        unsigned char [40]
  cksm            2   85[BANK1 ] unsigned int 
  length          2   83[BANK1 ] unsigned int 
  hdrLen          1   82[BANK1 ] unsigned char 
 Return value:  Size  Location     Type
                  1    wreg      enum E6944
 Registers used:
		wreg, fsr0l, fsr0h, fsr1l, fsr1h, fsr1l, fsr1h, fsr2l, fsr2h, status,2, status,0, pclat, btemp, btemp+1, btemp+2, btemp+3, btemp+4, btemp+5, btemp+6, btemp+7, btemp+8, btemp+9, btemp+10, btemp+11, tosl, structret, tblptrl, tblptrh, tblptru, prodl, prodh, bsr, cstack
 Tracked objects:
		On entry : 
		On exit  : 
		Unchanged: 
 Data sizes:     COMRAM   BANK0   BANK1   BANK2   BANK3   BANK4   BANK5   BANK6   BANK7   BANK8   BANK9  BANK10  BANK11  BANK12  BANK13  BANK14  BANK15
      Params:         0       0       0       0       0       0       0       0       0       0       0       0       0       0       0       0       0
      Locals:         0       0       5       0       0       0       0       0       0       0       0       0       0       0       0       0       0
      Temps:          0       0      28       0       0       0       0       0       0       0       0       0       0       0       0       0       0
      Totals:         0       0      33       0       0       0       0       0       0       0       0       0       0       0       0       0       0
Total ram usage:       33 bytes
 Hardware stack levels used:    1
 Hardware stack levels required when called:   16
 This function calls:
		_ETH_Dump
		_ETH_ReadBlock
		_ETH_RxComputeChecksum
		_ICMP_Receive
		_IPV4_PseudoHeaderChecksum
		_TCP_Recv
		_UDP_Receive
 This function is called by:
		_Network_Read
 This function uses a non-reentrant model


 *************** function _UDP_Receive *****************
 Defined at:
		line 126 in file "../../TCPIP Library/source/udpv4.c"
 Parameters:    Size  Location     Type
  udpcksm         2  115[BANK0 ] unsigned int 
 Auto vars:     Size  Location     Type
  x               2  123[BANK0 ] unsigned int 
  hptr            1  125[BANK0 ] PTR const struct .
		 -> UDP_CallBackTable(5), 
  ret             1    0        enum E367
 Return value:  Size  Location     Type
                  1    wreg      enum E6944
 Registers used:
		wreg, fsr0l, fsr0h, fsr1l, fsr1h, fsr1l, fsr1h, fsr2l, fsr2h, status,2, status,0, pclat, btemp, btemp+1, btemp+2, btemp+3, btemp+4, btemp+5, btemp+6, btemp+7, btemp+8, btemp+9, btemp+10, btemp+11, tosl, structret, tblptrl, tblptrh, tblptru, prodl, prodh, bsr, cstack
 Tracked objects:
		On entry : 
		On exit  : 
		Unchanged: 
 Data sizes:     COMRAM   BANK0   BANK1   BANK2   BANK3   BANK4   BANK5   BANK6   BANK7   BANK8   BANK9  BANK10  BANK11  BANK12  BANK13  BANK14  BANK15
      Params:         0       2       0       0       0       0       0       0       0       0       0       0       0       0       0       0       0
      Locals:         0       4       0       0       0       0       0       0       0       0       0       0       0       0       0       0       0
      Temps:          0       5       0       0       0       0       0       0       0       0       0       0       0       0       0       0       0
      Totals:         0      11       0       0       0       0       0       0       0       0       0       0       0       0       0       0       0
Total ram usage:       11 bytes
 Hardware stack levels used:    1
 Hardware stack levels required when called:   15
 This function calls:
		_DHCP_Handler
		_ETH_ReadBlock
 This function is called by:
		_IPV4_Packet
 This function uses a non-reentrant model


 *************** function _DHCP_Handler *****************
 Defined at:
		line 162 in file "../../TCPIP Library/source/dhcp_client.c"
 Parameters:    Size  Location     Type
  length          2   79[BANK0 ] int 
 Auto vars:     Size  Location     Type
  optionLength    1  110[BANK0 ] unsigned char 
  option          1   97[BANK0 ] unsigned char 
  ip              8   83[BANK0 ] unsigned int [4]
  ethMAC          6  104[BANK0 ] struct .
  ethPktMAC       6   98[BANK0 ] struct .
  myip            4  111[BANK0 ] unsigned long 
  v               4   91[BANK0 ] unsigned long 
  v16             2   95[BANK0 ] unsigned int 
 Return value:  Size  Location     Type
		None               void
 Registers used:
		wreg, fsr0l, fsr0h, fsr1l, fsr1h, fsr2l, fsr2h, status,2, status,0, tblptrl, tblptrh, tblptru, cstack
 Tracked objects:
		On entry : 
		On exit  : 
		Unchanged: 
 Data sizes:     COMRAM   BANK0   BANK1   BANK2   BANK3   BANK4   BANK5   BANK6   BANK7   BANK8   BANK9  BANK10  BANK11  BANK12  BANK13  BANK14  BANK15
      Params:         0       2       0       0       0       0       0       0       0       0       0       0       0       0       0       0       0
      Locals:         0      32       0       0       0       0       0       0       0       0       0       0       0       0       0       0       0
      Temps:          0       2       0       0       0       0       0       0       0       0       0       0       0       0       0       0       0
      Totals:         0      36       0       0       0       0       0       0       0       0       0       0       0       0       0       0       0
Total ram usage:       36 bytes
 Hardware stack levels used:    1
 Hardware stack levels required when called:   14
 This function calls:
		_DHCP_Request
		_ETH_Dump
		_ETH_GetMAC
		_ETH_Read16
		_ETH_Read32
		_ETH_Read8
		_ETH_ReadBlock
		_memcmp
 This function is called by:
		_UDP_Receive
 This function uses a non-reentrant model


 *************** function _memcmp *****************
 Defined at:
		line 3 in file "C:\Program Files (x86)\Microchip\xc8\v1.35\sources\common\memcmp.c"
 Parameters:    Size  Location     Type
  s1              1    wreg     PTR const void 
		 -> DHCP_Handler@ethPktMAC(6), 
  s2              1   22[COMRAM] PTR const void 
		 -> DHCP_Handler@ethMAC(6), 
  n               2   23[COMRAM] unsigned int 
 Auto vars:     Size  Location     Type
  s1              1   27[COMRAM] PTR const void 
		 -> DHCP_Handler@ethPktMAC(6), 
 Return value:  Size  Location     Type
                  2   22[COMRAM] int 
 Registers used:
		wreg, fsr1l, fsr1h, fsr2l, fsr2h, status,2, status,0
 Tracked objects:
		On entry : 
		On exit  : 
		Unchanged: 
 Data sizes:     COMRAM   BANK0   BANK1   BANK2   BANK3   BANK4   BANK5   BANK6   BANK7   BANK8   BANK9  BANK10  BANK11  BANK12  BANK13  BANK14  BANK15
      Params:         3       0       0       0       0       0       0       0       0       0       0       0       0       0       0       0       0
      Locals:         1       0       0       0       0       0       0       0       0       0       0       0       0       0       0       0       0
      Temps:          2       0       0       0       0       0       0       0       0       0       0       0       0       0       0       0       0
      Totals:         6       0       0       0       0       0       0       0       0       0       0       0       0       0       0       0       0
Total ram usage:        6 bytes
 Hardware stack levels used:    1
 Hardware stack levels required when called:    8
 This function calls:
		Nothing
 This function is called by:
		_DHCP_Handler
 This function uses a non-reentrant model


 *************** function _ETH_Read32 *****************
 Defined at:
		line 420 in file "../../TCPIP Library/ethernet_drivers/j60_driver.c"
 Parameters:    Size  Location     Type
		None
 Auto vars:     Size  Location     Type
  ret             4   26[COMRAM] unsigned long 
 Return value:  Size  Location     Type
                  4   22[COMRAM] unsigned long 
 Registers used:
		wreg, status,2, status,0, cstack
 Tracked objects:
		On entry : 
		On exit  : 
		Unchanged: 
 Data sizes:     COMRAM   BANK0   BANK1   BANK2   BANK3   BANK4   BANK5   BANK6   BANK7   BANK8   BANK9  BANK10  BANK11  BANK12  BANK13  BANK14  BANK15
      Params:         4       0       0       0       0       0       0       0       0       0       0       0       0       0       0       0       0
      Locals:         4       0       0       0       0       0       0       0       0       0       0       0       0       0       0       0       0
      Temps:          0       0       0       0       0       0       0       0       0       0       0       0       0       0       0       0       0
      Totals:         8       0       0       0       0       0       0       0       0       0       0       0       0       0       0       0       0
Total ram usage:        8 bytes
 Hardware stack levels used:    1
 Hardware stack levels required when called:    9
 This function calls:
		_ETH_EdataRead
 This function is called by:
		_DHCP_Handler
 This function uses a non-reentrant model


 *************** function _TCP_Recv *****************
 Defined at:
		line 483 in file "../../TCPIP Library/source/tcpv4.c"
 Parameters:    Size  Location     Type
  remoteAddres    4   17[BANK1 ] unsigned long 
  length          2   21[BANK1 ] unsigned int 
 Auto vars:     Size  Location     Type
  tcbPtr          2   52[BANK1 ] PTR struct .
		 -> ?_sprintf(2), ?_printf(2), main@str(32), STR_8(13), 
		 -> STR_7(17), DEMO_TCP_Client@txdataPort60(80), DEMO_TCP_Client@strTmp(17), DEMO_TCP_Client@rxdataPort60(50), 
		 -> DEMO_TCP_Client@port60TCB(55), Network_Read@debug_str(80), STR_1(15), NULL(0), 
  count           1   51[BANK1 ] char 
 Return value:  Size  Location     Type
		None               void
 Registers used:
		wreg, fsr0l, fsr0h, fsr2l, fsr2h, status,2, status,0, tblptrl, tblptrh, tblptru, cstack
 Tracked objects:
		On entry : 
		On exit  : 
		Unchanged: 
 Data sizes:     COMRAM   BANK0   BANK1   BANK2   BANK3   BANK4   BANK5   BANK6   BANK7   BANK8   BANK9  BANK10  BANK11  BANK12  BANK13  BANK14  BANK15
      Params:         0       0       6       0       0       0       0       0       0       0       0       0       0       0       0       0       0
      Locals:         0       0       3       0       0       0       0       0       0       0       0       0       0       0       0       0       0
      Temps:          0       0      28       0       0       0       0       0       0       0       0       0       0       0       0       0       0
      Totals:         0       0      37       0       0       0       0       0       0       0       0       0       0       0       0       0       0
Total ram usage:       37 bytes
 Hardware stack levels used:    1
 Hardware stack levels required when called:   15
 This function calls:
		_ETH_ReadBlock
		_TCP_FiniteStateMachine
		_TCP_ParseTCPOptions
 This function is called by:
		_IPV4_Packet
 This function uses a non-reentrant model


 *************** function _TCP_ParseTCPOptions *****************
 Defined at:
		line 356 in file "../../TCPIP Library/source/tcpv4.c"
 Parameters:    Size  Location     Type
		None
 Auto vars:     Size  Location     Type
  tcpOptionsSi    2   30[COMRAM] unsigned int 
  opt             1   29[COMRAM] unsigned char 
  ret             1   28[COMRAM] unsigned char 
 Return value:  Size  Location     Type
                  1    wreg      unsigned char 
 Registers used:
		wreg, status,2, status,0, cstack
 Tracked objects:
		On entry : 
		On exit  : 
		Unchanged: 
 Data sizes:     COMRAM   BANK0   BANK1   BANK2   BANK3   BANK4   BANK5   BANK6   BANK7   BANK8   BANK9  BANK10  BANK11  BANK12  BANK13  BANK14  BANK15
      Params:         0       0       0       0       0       0       0       0       0       0       0       0       0       0       0       0       0
      Locals:         4       0       0       0       0       0       0       0       0       0       0       0       0       0       0       0       0
      Temps:          2       0       0       0       0       0       0       0       0       0       0       0       0       0       0       0       0
      Totals:         6       0       0       0       0       0       0       0       0       0       0       0       0       0       0       0       0
Total ram usage:        6 bytes
 Hardware stack levels used:    1
 Hardware stack levels required when called:   10
 This function calls:
		_ETH_Dump
		_ETH_Read16
		_ETH_Read8
 This function is called by:
		_TCP_Recv
 This function uses a non-reentrant model


 *************** function _ETH_Read8 *****************
 Defined at:
		line 380 in file "../../TCPIP Library/ethernet_drivers/j60_driver.c"
 Parameters:    Size  Location     Type
		None
 Auto vars:     Size  Location     Type
  ret             1   22[COMRAM] unsigned char 
 Return value:  Size  Location     Type
                  1    wreg      unsigned char 
 Registers used:
		wreg, status,2, status,0, cstack
 Tracked objects:
		On entry : 
		On exit  : 
		Unchanged: 
 Data sizes:     COMRAM   BANK0   BANK1   BANK2   BANK3   BANK4   BANK5   BANK6   BANK7   BANK8   BANK9  BANK10  BANK11  BANK12  BANK13  BANK14  BANK15
      Params:         0       0       0       0       0       0       0       0       0       0       0       0       0       0       0       0       0
      Locals:         1       0       0       0       0       0       0       0       0       0       0       0       0       0       0       0       0
      Temps:          0       0       0       0       0       0       0       0       0       0       0       0       0       0       0       0       0
      Totals:         1       0       0       0       0       0       0       0       0       0       0       0       0       0       0       0       0
Total ram usage:        1 bytes
 Hardware stack levels used:    1
 Hardware stack levels required when called:    9
 This function calls:
		_ETH_EdataRead
 This function is called by:
		_DHCP_Handler
		_TCP_ParseTCPOptions
 This function uses a non-reentrant model


 *************** function _ETH_Read16 *****************
 Defined at:
		line 399 in file "../../TCPIP Library/ethernet_drivers/j60_driver.c"
 Parameters:    Size  Location     Type
		None
 Auto vars:     Size  Location     Type
  ret             2   24[COMRAM] unsigned int 
 Return value:  Size  Location     Type
                  2   22[COMRAM] unsigned int 
 Registers used:
		wreg, status,2, status,0, cstack
 Tracked objects:
		On entry : 
		On exit  : 
		Unchanged: 
 Data sizes:     COMRAM   BANK0   BANK1   BANK2   BANK3   BANK4   BANK5   BANK6   BANK7   BANK8   BANK9  BANK10  BANK11  BANK12  BANK13  BANK14  BANK15
      Params:         2       0       0       0       0       0       0       0       0       0       0       0       0       0       0       0       0
      Locals:         2       0       0       0       0       0       0       0       0       0       0       0       0       0       0       0       0
      Temps:          0       0       0       0       0       0       0       0       0       0       0       0       0       0       0       0       0
      Totals:         4       0       0       0       0       0       0       0       0       0       0       0       0       0       0       0       0
Total ram usage:        4 bytes
 Hardware stack levels used:    1
 Hardware stack levels required when called:    9
 This function calls:
		_ETH_EdataRead
 This function is called by:
		_DHCP_Handler
		_TCP_ParseTCPOptions
 This function uses a non-reentrant model


 *************** function _ETH_Dump *****************
 Defined at:
		line 611 in file "../../TCPIP Library/ethernet_drivers/j60_driver.c"
 Parameters:    Size  Location     Type
  length          2   22[COMRAM] unsigned int 
 Auto vars:     Size  Location     Type
		None
 Return value:  Size  Location     Type
		None               void
 Registers used:
		wreg, status,2, status,0
 Tracked objects:
		On entry : 
		On exit  : 
		Unchanged: 
 Data sizes:     COMRAM   BANK0   BANK1   BANK2   BANK3   BANK4   BANK5   BANK6   BANK7   BANK8   BANK9  BANK10  BANK11  BANK12  BANK13  BANK14  BANK15
      Params:         2       0       0       0       0       0       0       0       0       0       0       0       0       0       0       0       0
      Locals:         0       0       0       0       0       0       0       0       0       0       0       0       0       0       0       0       0
      Temps:          0       0       0       0       0       0       0       0       0       0       0       0       0       0       0       0       0
      Totals:         2       0       0       0       0       0       0       0       0       0       0       0       0       0       0       0       0
Total ram usage:        2 bytes
 Hardware stack levels used:    1
 Hardware stack levels required when called:    8
 This function calls:
		Nothing
 This function is called by:
		_DHCP_Handler
		_IPV4_Packet
		_TCP_ParseTCPOptions
 This function uses a non-reentrant model


 *************** function _IPV4_PseudoHeaderChecksum *****************
 Defined at:
		line 83 in file "../../TCPIP Library/source/ipv4.c"
 Parameters:    Size  Location     Type
  payloadLen      2   22[COMRAM] unsigned int 
 Auto vars:     Size  Location     Type
  tmp            12   34[COMRAM] struct .
  cksm            4   30[COMRAM] unsigned long 
  len             1   29[COMRAM] unsigned char 
  v               1   28[COMRAM] PTR unsigned int 
		 -> IPV4_PseudoHeaderChecksum@tmp(12), 
 Return value:  Size  Location     Type
                  2   22[COMRAM] unsigned int 
 Registers used:
		wreg, fsr2l, fsr2h, status,2, status,0
 Tracked objects:
		On entry : 
		On exit  : 
		Unchanged: 
 Data sizes:     COMRAM   BANK0   BANK1   BANK2   BANK3   BANK4   BANK5   BANK6   BANK7   BANK8   BANK9  BANK10  BANK11  BANK12  BANK13  BANK14  BANK15
      Params:         2       0       0       0       0       0       0       0       0       0       0       0       0       0       0       0       0
      Locals:        18       0       0       0       0       0       0       0       0       0       0       0       0       0       0       0       0
      Temps:          4       0       0       0       0       0       0       0       0       0       0       0       0       0       0       0       0
      Totals:        24       0       0       0       0       0       0       0       0       0       0       0       0       0       0       0       0
Total ram usage:       24 bytes
 Hardware stack levels used:    1
 Hardware stack levels required when called:    8
 This function calls:
		Nothing
 This function is called by:
		_IPV4_Packet
 This function uses a non-reentrant model


 *************** function _ICMP_Receive *****************
 Defined at:
		line 56 in file "../../TCPIP Library/source/icmp.c"
 Parameters:    Size  Location     Type
  ipv4Hdr         2   79[BANK0 ] PTR struct .
		 -> ipv4Header(20), 
 Auto vars:     Size  Location     Type
  icmpHdr         8   86[BANK0 ] struct .
  ret             1    0        enum E366
 Return value:  Size  Location     Type
                  1    wreg      enum E366
 Registers used:
		wreg, fsr0l, fsr0h, fsr2l, fsr2h, status,2, status,0, pclat, tosl, tblptrl, tblptrh, tblptru, prodl, prodh, cstack
 Tracked objects:
		On entry : 
		On exit  : 
		Unchanged: 
 Data sizes:     COMRAM   BANK0   BANK1   BANK2   BANK3   BANK4   BANK5   BANK6   BANK7   BANK8   BANK9  BANK10  BANK11  BANK12  BANK13  BANK14  BANK15
      Params:         0       2       0       0       0       0       0       0       0       0       0       0       0       0       0       0       0
      Locals:         0       9       0       0       0       0       0       0       0       0       0       0       0       0       0       0       0
      Temps:          0       4       0       0       0       0       0       0       0       0       0       0       0       0       0       0       0
      Totals:         0      15       0       0       0       0       0       0       0       0       0       0       0       0       0       0       0
Total ram usage:       15 bytes
 Hardware stack levels used:    1
 Hardware stack levels required when called:   14
 This function calls:
		_ETH_ReadBlock
		_ETH_SaveRDPT
		_ICMP_EchoReply
 This function is called by:
		_IPV4_Packet
 This function uses a non-reentrant model


 *************** function _ICMP_EchoReply *****************
 Defined at:
		line 86 in file "../../TCPIP Library/source/icmp.c"
 Parameters:    Size  Location     Type
  icmpHdr         1    wreg     PTR struct .
		 -> ICMP_Receive@icmpHdr(8), 
  ipv4Hdr         2   63[BANK0 ] PTR struct .
		 -> ipv4Header(20), 
 Auto vars:     Size  Location     Type
  icmpHdr         1   78[BANK0 ] PTR struct .
		 -> ICMP_Receive@icmpHdr(8), 
  ipv4PayloadL    2   75[BANK0 ] unsigned int 
  icmp_cksm_st    2    0        unsigned int 
  cksm            2   73[BANK0 ] unsigned int 
  ret             1   77[BANK0 ] enum E366
 Return value:  Size  Location     Type
                  1    wreg      enum E366
 Registers used:
		wreg, fsr0l, fsr0h, fsr2l, fsr2h, status,2, status,0, pclat, tosl, tblptrl, tblptrh, tblptru, prodl, prodh, cstack
 Tracked objects:
		On entry : 
		On exit  : 
		Unchanged: 
 Data sizes:     COMRAM   BANK0   BANK1   BANK2   BANK3   BANK4   BANK5   BANK6   BANK7   BANK8   BANK9  BANK10  BANK11  BANK12  BANK13  BANK14  BANK15
      Params:         0       2       0       0       0       0       0       0       0       0       0       0       0       0       0       0       0
      Locals:         0       8       0       0       0       0       0       0       0       0       0       0       0       0       0       0       0
      Temps:          0       6       0       0       0       0       0       0       0       0       0       0       0       0       0       0       0
      Totals:         0      16       0       0       0       0       0       0       0       0       0       0       0       0       0       0       0
Total ram usage:       16 bytes
 Hardware stack levels used:    1
 Hardware stack levels required when called:   13
 This function calls:
		_ETH_Copy
		_ETH_Insert
		_ETH_SaveRDPT
		_ETH_TxComputeChecksum
		_ETH_Write16
		_IPV4_Send
		_IPv4_Start
 This function is called by:
		_ICMP_Receive
 This function uses a non-reentrant model


 *************** function _ETH_SaveRDPT *****************
 Defined at:
		line 828 in file "../../TCPIP Library/ethernet_drivers/j60_driver.c"
 Parameters:    Size  Location     Type
		None
 Auto vars:     Size  Location     Type
		None
 Return value:  Size  Location     Type
		None               void
 Registers used:
		None
 Tracked objects:
		On entry : 
		On exit  : 
		Unchanged: 
 Data sizes:     COMRAM   BANK0   BANK1   BANK2   BANK3   BANK4   BANK5   BANK6   BANK7   BANK8   BANK9  BANK10  BANK11  BANK12  BANK13  BANK14  BANK15
      Params:         0       0       0       0       0       0       0       0       0       0       0       0       0       0       0       0       0
      Locals:         0       0       0       0       0       0       0       0       0       0       0       0       0       0       0       0       0
      Temps:          0       0       0       0       0       0       0       0       0       0       0       0       0       0       0       0       0
      Totals:         0       0       0       0       0       0       0       0       0       0       0       0       0       0       0       0       0
Total ram usage:        0 bytes
 Hardware stack levels used:    1
 Hardware stack levels required when called:    8
 This function calls:
		Nothing
 This function is called by:
		_ICMP_Receive
		_ICMP_EchoReply
 This function uses a non-reentrant model


 *************** function _ETH_Copy *****************
 Defined at:
		line 668 in file "../../TCPIP Library/ethernet_drivers/j60_driver.c"
 Parameters:    Size  Location     Type
  len             2   17[BANK0 ] unsigned int 
 Auto vars:     Size  Location     Type
  tmp_len         2   21[BANK0 ] unsigned int 
  timer           2   19[BANK0 ] unsigned int 
 Return value:  Size  Location     Type
                  1    wreg      enum E6944
 Registers used:
		wreg, fsr0l, fsr0h, fsr2l, fsr2h, status,2, status,0, pclat, tosl, tblptrl, tblptrh, tblptru, prodl, prodh, cstack
 Tracked objects:
		On entry : 
		On exit  : 
		Unchanged: 
 Data sizes:     COMRAM   BANK0   BANK1   BANK2   BANK3   BANK4   BANK5   BANK6   BANK7   BANK8   BANK9  BANK10  BANK11  BANK12  BANK13  BANK14  BANK15
      Params:         0       2       0       0       0       0       0       0       0       0       0       0       0       0       0       0       0
      Locals:         0       4       0       0       0       0       0       0       0       0       0       0       0       0       0       0       0
      Temps:          0       0       0       0       0       0       0       0       0       0       0       0       0       0       0       0       0
      Totals:         0       6       0       0       0       0       0       0       0       0       0       0       0       0       0       0       0
Total ram usage:        6 bytes
 Hardware stack levels used:    1
 Hardware stack levels required when called:   12
 This function calls:
		_SYSLOG_Write
		___wmul
 This function is called by:
		_ICMP_EchoReply
 This function uses a non-reentrant model


 *************** function _SYSLOG_Write *****************
 Defined at:
		line 50 in file "../../TCPIP Library/source/syslog.c"
 Parameters:    Size  Location     Type
  message         2   13[BANK0 ] PTR const unsigned char 
		 -> main@str(32), STR_8(13), STR_7(17), STR_1(15), 
 Auto vars:     Size  Location     Type
  t               2   15[BANK0 ] unsigned int 
 Return value:  Size  Location     Type
		None               void
 Registers used:
		wreg, fsr0l, fsr0h, fsr2l, fsr2h, status,2, status,0, pclat, tosl, tblptrl, tblptrh, tblptru, prodl, prodh, cstack
 Tracked objects:
		On entry : 
		On exit  : 
		Unchanged: 
 Data sizes:     COMRAM   BANK0   BANK1   BANK2   BANK3   BANK4   BANK5   BANK6   BANK7   BANK8   BANK9  BANK10  BANK11  BANK12  BANK13  BANK14  BANK15
      Params:         0       2       0       0       0       0       0       0       0       0       0       0       0       0       0       0       0
      Locals:         0       2       0       0       0       0       0       0       0       0       0       0       0       0       0       0       0
      Temps:          0       0       0       0       0       0       0       0       0       0       0       0       0       0       0       0       0
      Totals:         0       4       0       0       0       0       0       0       0       0       0       0       0       0       0       0       0
Total ram usage:        4 bytes
 Hardware stack levels used:    1
 Hardware stack levels required when called:   11
 This function calls:
		_printf
		_time
 This function is called by:
		_ETH_Copy
		_main
 This function uses a non-reentrant model


 *************** function _printf *****************
 Defined at:
		line 13 in file "C:\Program Files (x86)\Microchip\xc8\v1.35\sources\common\printf.c"
 Parameters:    Size  Location     Type
  f               1    wreg     PTR const unsigned char 
		 -> STR_4(10), STR_3(28), 
 Auto vars:     Size  Location     Type
  f               1   44[COMRAM] PTR const unsigned char 
		 -> STR_4(10), STR_3(28), 
  pb              5   46[COMRAM] struct __prbuf
  ap              1   45[COMRAM] PTR void [1]
		 -> ?_sprintf(2), ?_printf(2), 
 Return value:  Size  Location     Type
                  2   40[COMRAM] int 
 Registers used:
		wreg, fsr0l, fsr0h, fsr2l, fsr2h, status,2, status,0, pclat, tosl, tblptrl, tblptrh, tblptru, prodl, prodh, cstack
 Tracked objects:
		On entry : 
		On exit  : 
		Unchanged: 
 Data sizes:     COMRAM   BANK0   BANK1   BANK2   BANK3   BANK4   BANK5   BANK6   BANK7   BANK8   BANK9  BANK10  BANK11  BANK12  BANK13  BANK14  BANK15
      Params:         4       0       0       0       0       0       0       0       0       0       0       0       0       0       0       0       0
      Locals:         7       0       0       0       0       0       0       0       0       0       0       0       0       0       0       0       0
      Temps:          0       0       0       0       0       0       0       0       0       0       0       0       0       0       0       0       0
      Totals:        11       0       0       0       0       0       0       0       0       0       0       0       0       0       0       0       0
Total ram usage:       11 bytes
 Hardware stack levels used:    1
 Hardware stack levels required when called:   10
 This function calls:
		__doprnt
 This function is called by:
		_SYSLOG_Init
		_SYSLOG_Write
 This function uses a non-reentrant model


 *************** function _ETH_RxComputeChecksum *****************
 Defined at:
		line 781 in file "../../TCPIP Library/ethernet_drivers/j60_driver.c"
 Parameters:    Size  Location     Type
  len             2   36[COMRAM] unsigned int 
  seed            2   38[COMRAM] unsigned int 
 Auto vars:     Size  Location     Type
  cksm            4   46[COMRAM] unsigned long 
  rxptr           2   44[COMRAM] unsigned int 
 Return value:  Size  Location     Type
                  2   36[COMRAM] unsigned int 
 Registers used:
		wreg, status,2, status,0, cstack
 Tracked objects:
		On entry : 
		On exit  : 
		Unchanged: 
 Data sizes:     COMRAM   BANK0   BANK1   BANK2   BANK3   BANK4   BANK5   BANK6   BANK7   BANK8   BANK9  BANK10  BANK11  BANK12  BANK13  BANK14  BANK15
      Params:         4       0       0       0       0       0       0       0       0       0       0       0       0       0       0       0       0
      Locals:         6       0       0       0       0       0       0       0       0       0       0       0       0       0       0       0       0
      Temps:          4       0       0       0       0       0       0       0       0       0       0       0       0       0       0       0       0
      Totals:        14       0       0       0       0       0       0       0       0       0       0       0       0       0       0       0       0
Total ram usage:       14 bytes
 Hardware stack levels used:    1
 Hardware stack levels required when called:   10
 This function calls:
		_ETH_ComputeChecksum
 This function is called by:
		_IPV4_Packet
 This function uses a non-reentrant model


 *************** function _ETH_NextPacketUpdate *****************
 Defined at:
		line 266 in file "../../TCPIP Library/ethernet_drivers/j60_driver.c"
 Parameters:    Size  Location     Type
		None
 Auto vars:     Size  Location     Type
		None
 Return value:  Size  Location     Type
		None               void
 Registers used:
		wreg, status,2, status,0, cstack
 Tracked objects:
		On entry : 
		On exit  : 
		Unchanged: 
 Data sizes:     COMRAM   BANK0   BANK1   BANK2   BANK3   BANK4   BANK5   BANK6   BANK7   BANK8   BANK9  BANK10  BANK11  BANK12  BANK13  BANK14  BANK15
      Params:         0       0       0       0       0       0       0       0       0       0       0       0       0       0       0       0       0
      Locals:         0       0       0       0       0       0       0       0       0       0       0       0       0       0       0       0       0
      Temps:          0       0       0       0       0       0       0       0       0       0       0       0       0       0       0       0       0
      Totals:         0       0       0       0       0       0       0       0       0       0       0       0       0       0       0       0       0
Total ram usage:        0 bytes
 Hardware stack levels used:    1
 Hardware stack levels required when called:    9
 This function calls:
		_ETH_EdataRead
 This function is called by:
		_Network_Read
 This function uses a non-reentrant model


 *************** function _ETH_Flush *****************
 Defined at:
		line 625 in file "../../TCPIP Library/ethernet_drivers/j60_driver.c"
 Parameters:    Size  Location     Type
		None
 Auto vars:     Size  Location     Type
		None
 Return value:  Size  Location     Type
		None               void
 Registers used:
		wreg, status,2, status,0
 Tracked objects:
		On entry : 
		On exit  : 
		Unchanged: 
 Data sizes:     COMRAM   BANK0   BANK1   BANK2   BANK3   BANK4   BANK5   BANK6   BANK7   BANK8   BANK9  BANK10  BANK11  BANK12  BANK13  BANK14  BANK15
      Params:         0       0       0       0       0       0       0       0       0       0       0       0       0       0       0       0       0
      Locals:         0       0       0       0       0       0       0       0       0       0       0       0       0       0       0       0       0
      Temps:          4       0       0       0       0       0       0       0       0       0       0       0       0       0       0       0       0
      Totals:         4       0       0       0       0       0       0       0       0       0       0       0       0       0       0       0       0
Total ram usage:        4 bytes
 Hardware stack levels used:    1
 Hardware stack levels required when called:    8
 This function calls:
		Nothing
 This function is called by:
		_Network_Read
 This function uses a non-reentrant model


 *************** function _ARPV4_Packet *****************
 Defined at:
		line 97 in file "../../TCPIP Library/source/arpv4.c"
 Parameters:    Size  Location     Type
		None
 Auto vars:     Size  Location     Type
  x               1   39[BANK0 ] unsigned char 
  arpPtr          2   36[BANK0 ] PTR struct .
		 -> arpMap(104), 
  x               1   38[BANK0 ] unsigned char 
  header         28   42[BANK0 ] struct .
  entryPointer    2   40[BANK0 ] PTR struct .
		 -> arpMap(104), 
  length          2   32[BANK0 ] unsigned int 
  ret             1   35[BANK0 ] enum E450
  mergeFlag       1   34[BANK0 ] unsigned char 
 Return value:  Size  Location     Type
                  1    wreg      enum E450
 Registers used:
		wreg, fsr0l, fsr0h, fsr1l, fsr1h, fsr2l, fsr2h, status,2, status,0, tblptrl, tblptrh, tblptru, cstack
 Tracked objects:
		On entry : 
		On exit  : 
		Unchanged: 
 Data sizes:     COMRAM   BANK0   BANK1   BANK2   BANK3   BANK4   BANK5   BANK6   BANK7   BANK8   BANK9  BANK10  BANK11  BANK12  BANK13  BANK14  BANK15
      Params:         0       0       0       0       0       0       0       0       0       0       0       0       0       0       0       0       0
      Locals:         0      38       0       0       0       0       0       0       0       0       0       0       0       0       0       0       0
      Temps:          0      32       0       0       0       0       0       0       0       0       0       0       0       0       0       0       0
      Totals:         0      70       0       0       0       0       0       0       0       0       0       0       0       0       0       0       0
Total ram usage:       70 bytes
 Hardware stack levels used:    1
 Hardware stack levels required when called:   10
 This function calls:
		_ETH_GetMAC
		_ETH_ReadBlock
		_ETH_Send
		_ETH_WriteBlock
		_ETH_WriteStart
 This function is called by:
		_Network_Read
 This function uses a non-reentrant model


 *************** function _ETH_EventHandler *****************
 Defined at:
		line 215 in file "../../TCPIP Library/ethernet_drivers/j60_driver.c"
 Parameters:    Size  Location     Type
		None
 Auto vars:     Size  Location     Type
		None
 Return value:  Size  Location     Type
		None               void
 Registers used:
		wreg, status,2, status,0, cstack
 Tracked objects:
		On entry : 
		On exit  : 
		Unchanged: 
 Data sizes:     COMRAM   BANK0   BANK1   BANK2   BANK3   BANK4   BANK5   BANK6   BANK7   BANK8   BANK9  BANK10  BANK11  BANK12  BANK13  BANK14  BANK15
      Params:         0       0       0       0       0       0       0       0       0       0       0       0       0       0       0       0       0
      Locals:         0       0       0       0       0       0       0       0       0       0       0       0       0       0       0       0       0
      Temps:          0       0       0       0       0       0       0       0       0       0       0       0       0       0       0       0       0
      Totals:         0       0       0       0       0       0       0       0       0       0       0       0       0       0       0       0       0
Total ram usage:        0 bytes
 Hardware stack levels used:    1
 Hardware stack levels required when called:   12
 This function calls:
		_ETH_CheckLinkUp
		_PHY_Read
 This function is called by:
		_Network_Manage
 This function uses a non-reentrant model


 *************** function _DHCP_Manage *****************
 Defined at:
		line 130 in file "../../TCPIP Library/source/dhcp_client.c"
 Parameters:    Size  Location     Type
		None
 Auto vars:     Size  Location     Type
		None
 Return value:  Size  Location     Type
		None               void
 Registers used:
		wreg, fsr0l, fsr0h, fsr2l, fsr2h, status,2, status,0, tblptrl, tblptrh, tblptru, cstack
 Tracked objects:
		On entry : 
		On exit  : 
		Unchanged: 
 Data sizes:     COMRAM   BANK0   BANK1   BANK2   BANK3   BANK4   BANK5   BANK6   BANK7   BANK8   BANK9  BANK10  BANK11  BANK12  BANK13  BANK14  BANK15
      Params:         0       0       0       0       0       0       0       0       0       0       0       0       0       0       0       0       0
      Locals:         0       0       0       0       0       0       0       0       0       0       0       0       0       0       0       0       0
      Temps:          0       0       0       0       0       0       0       0       0       0       0       0       0       0       0       0       0
      Totals:         0       0       0       0       0       0       0       0       0       0       0       0       0       0       0       0       0
Total ram usage:        0 bytes
 Hardware stack levels used:    1
 Hardware stack levels required when called:   14
 This function calls:
		_DHCP_Request
 This function is called by:
		_Network_Manage
 This function uses a non-reentrant model


 *************** function _DHCP_Request *****************
 Defined at:
		line 71 in file "../../TCPIP Library/source/dhcp_client.c"
 Parameters:    Size  Location     Type
  type            1    wreg     enum E592
 Auto vars:     Size  Location     Type
  type            1   72[BANK0 ] enum E592
  ethMAC          6   73[BANK0 ] struct .
  msglength       2    0        unsigned int 
  started         1   71[BANK0 ] unsigned char 
 Return value:  Size  Location     Type
		None               void
 Registers used:
		wreg, fsr0l, fsr0h, fsr2l, fsr2h, status,2, status,0, tblptrl, tblptrh, tblptru, cstack
 Tracked objects:
		On entry : 
		On exit  : 
		Unchanged: 
 Data sizes:     COMRAM   BANK0   BANK1   BANK2   BANK3   BANK4   BANK5   BANK6   BANK7   BANK8   BANK9  BANK10  BANK11  BANK12  BANK13  BANK14  BANK15
      Params:         0       0       0       0       0       0       0       0       0       0       0       0       0       0       0       0       0
      Locals:         0       8       0       0       0       0       0       0       0       0       0       0       0       0       0       0       0
      Temps:          0       0       0       0       0       0       0       0       0       0       0       0       0       0       0       0       0
      Totals:         0       8       0       0       0       0       0       0       0       0       0       0       0       0       0       0       0
Total ram usage:        8 bytes
 Hardware stack levels used:    1
 Hardware stack levels required when called:   13
 This function calls:
		_DHCP_WriteZeros
		_ETH_GetMAC
		_ETH_Write16
		_ETH_Write32
		_ETH_Write8
		_ETH_WriteBlock
		_UDP_Send
		_UDP_Start
 This function is called by:
		_DHCP_Manage
		_DHCP_Handler
 This function uses a non-reentrant model


 *************** function _UDP_Start *****************
 Defined at:
		line 71 in file "../../TCPIP Library/source/udpv4.c"
 Parameters:    Size  Location     Type
  destIP          4   63[BANK0 ] unsigned long 
  srcPort         2   67[BANK0 ] unsigned int 
  dstPort         2   69[BANK0 ] unsigned int 
 Auto vars:     Size  Location     Type
  ret             1   46[COMRAM] enum E367
 Return value:  Size  Location     Type
                  1    wreg      enum E449
 Registers used:
		wreg, fsr0l, fsr0h, fsr2l, fsr2h, status,2, status,0, tblptrl, tblptrh, tblptru, cstack
 Tracked objects:
		On entry : 
		On exit  : 
		Unchanged: 
 Data sizes:     COMRAM   BANK0   BANK1   BANK2   BANK3   BANK4   BANK5   BANK6   BANK7   BANK8   BANK9  BANK10  BANK11  BANK12  BANK13  BANK14  BANK15
      Params:         0       8       0       0       0       0       0       0       0       0       0       0       0       0       0       0       0
      Locals:         1       0       0       0       0       0       0       0       0       0       0       0       0       0       0       0       0
      Temps:          0       0       0       0       0       0       0       0       0       0       0       0       0       0       0       0       0
      Totals:         1       8       0       0       0       0       0       0       0       0       0       0       0       0       0       0       0
Total ram usage:        9 bytes
 Hardware stack levels used:    1
 Hardware stack levels required when called:   12
 This function calls:
		_ETH_ResetByteCount
		_ETH_Write16
		_IPv4_Start
 This function is called by:
		_DHCP_Request
 This function uses a non-reentrant model


 *************** function _UDP_Send *****************
 Defined at:
		line 99 in file "../../TCPIP Library/source/udpv4.c"
 Parameters:    Size  Location     Type
		None
 Auto vars:     Size  Location     Type
  udpLength       2   27[BANK0 ] unsigned int 
  cksm            2   25[BANK0 ] unsigned int 
  ret             1    0        enum E367
 Return value:  Size  Location     Type
                  1    wreg      enum E449
 Registers used:
		wreg, fsr2l, fsr2h, status,2, status,0, cstack
 Tracked objects:
		On entry : 
		On exit  : 
		Unchanged: 
 Data sizes:     COMRAM   BANK0   BANK1   BANK2   BANK3   BANK4   BANK5   BANK6   BANK7   BANK8   BANK9  BANK10  BANK11  BANK12  BANK13  BANK14  BANK15
      Params:         0       0       0       0       0       0       0       0       0       0       0       0       0       0       0       0       0
      Locals:         0       5       0       0       0       0       0       0       0       0       0       0       0       0       0       0       0
      Temps:          0       4       0       0       0       0       0       0       0       0       0       0       0       0       0       0       0
      Totals:         0       9       0       0       0       0       0       0       0       0       0       0       0       0       0       0       0
Total ram usage:        9 bytes
 Hardware stack levels used:    1
 Hardware stack levels required when called:   12
 This function calls:
		_ETH_GetByteCount
		_ETH_Insert
		_ETH_TxComputeChecksum
		_IPV4_Send
 This function is called by:
		_DHCP_Request
 This function uses a non-reentrant model


 *************** function _ETH_GetByteCount *****************
 Defined at:
		line 843 in file "../../TCPIP Library/ethernet_drivers/j60_driver.c"
 Parameters:    Size  Location     Type
		None
 Auto vars:     Size  Location     Type
  val             2   24[COMRAM] unsigned int 
 Return value:  Size  Location     Type
                  2   22[COMRAM] unsigned int 
 Registers used:
		wreg, status,2, status,0
 Tracked objects:
		On entry : 
		On exit  : 
		Unchanged: 
 Data sizes:     COMRAM   BANK0   BANK1   BANK2   BANK3   BANK4   BANK5   BANK6   BANK7   BANK8   BANK9  BANK10  BANK11  BANK12  BANK13  BANK14  BANK15
      Params:         2       0       0       0       0       0       0       0       0       0       0       0       0       0       0       0       0
      Locals:         2       0       0       0       0       0       0       0       0       0       0       0       0       0       0       0       0
      Temps:          0       0       0       0       0       0       0       0       0       0       0       0       0       0       0       0       0
      Totals:         4       0       0       0       0       0       0       0       0       0       0       0       0       0       0       0       0
Total ram usage:        4 bytes
 Hardware stack levels used:    1
 Hardware stack levels required when called:    8
 This function calls:
		Nothing
 This function is called by:
		_UDP_Send
 This function uses a non-reentrant model


 *************** function _DHCP_WriteZeros *****************
 Defined at:
		line 277 in file "../../TCPIP Library/source/dhcp_client.c"
 Parameters:    Size  Location     Type
  length          2   23[COMRAM] unsigned int 
 Auto vars:     Size  Location     Type
		None
 Return value:  Size  Location     Type
		None               void
 Registers used:
		wreg, status,2, status,0, cstack
 Tracked objects:
		On entry : 
		On exit  : 
		Unchanged: 
 Data sizes:     COMRAM   BANK0   BANK1   BANK2   BANK3   BANK4   BANK5   BANK6   BANK7   BANK8   BANK9  BANK10  BANK11  BANK12  BANK13  BANK14  BANK15
      Params:         2       0       0       0       0       0       0       0       0       0       0       0       0       0       0       0       0
      Locals:         0       0       0       0       0       0       0       0       0       0       0       0       0       0       0       0       0
      Temps:          0       0       0       0       0       0       0       0       0       0       0       0       0       0       0       0       0
      Totals:         2       0       0       0       0       0       0       0       0       0       0       0       0       0       0       0       0
Total ram usage:        2 bytes
 Hardware stack levels used:    1
 Hardware stack levels required when called:   10
 This function calls:
		_ETH_Write8
 This function is called by:
		_DHCP_Request
 This function uses a non-reentrant model


 *************** function _ARPV4_Update *****************
 Defined at:
		line 179 in file "../../TCPIP Library/source/arpv4.c"
 Parameters:    Size  Location     Type
		None
 Auto vars:     Size  Location     Type
  x               1   24[COMRAM] unsigned char 
  entryPointer    2   22[COMRAM] PTR struct .
		 -> arpMap(104), 
 Return value:  Size  Location     Type
		None               void
 Registers used:
		wreg, fsr2l, fsr2h, status,2, status,0
 Tracked objects:
		On entry : 
		On exit  : 
		Unchanged: 
 Data sizes:     COMRAM   BANK0   BANK1   BANK2   BANK3   BANK4   BANK5   BANK6   BANK7   BANK8   BANK9  BANK10  BANK11  BANK12  BANK13  BANK14  BANK15
      Params:         0       0       0       0       0       0       0       0       0       0       0       0       0       0       0       0       0
      Locals:         3       0       0       0       0       0       0       0       0       0       0       0       0       0       0       0       0
      Temps:          0       0       0       0       0       0       0       0       0       0       0       0       0       0       0       0       0
      Totals:         3       0       0       0       0       0       0       0       0       0       0       0       0       0       0       0       0
Total ram usage:        3 bytes
 Hardware stack levels used:    1
 Hardware stack levels required when called:    8
 This function calls:
		Nothing
 This function is called by:
		_Network_Manage
 This function uses a non-reentrant model


 *************** function _Network_Init *****************
 Defined at:
		line 65 in file "../../TCPIP Library/source/network.c"
 Parameters:    Size  Location     Type
		None
 Auto vars:     Size  Location     Type
		None
 Return value:  Size  Location     Type
		None               void
 Registers used:
		wreg, fsr2l, fsr2h, status,2, status,0, tblptrl, tblptrh, tblptru, cstack
 Tracked objects:
		On entry : 
		On exit  : 
		Unchanged: 
 Data sizes:     COMRAM   BANK0   BANK1   BANK2   BANK3   BANK4   BANK5   BANK6   BANK7   BANK8   BANK9  BANK10  BANK11  BANK12  BANK13  BANK14  BANK15
      Params:         0       0       0       0       0       0       0       0       0       0       0       0       0       0       0       0       0
      Locals:         0       0       0       0       0       0       0       0       0       0       0       0       0       0       0       0       0
      Temps:          0       0       0       0       0       0       0       0       0       0       0       0       0       0       0       0       0
      Totals:         0       0       0       0       0       0       0       0       0       0       0       0       0       0       0       0       0
Total ram usage:        0 bytes
 Hardware stack levels used:    1
 Hardware stack levels required when called:   13
 This function calls:
		_ARPV4_Init
		_ETH_Init
		_IPV4_Init
		_TCP_Init
		_time
 This function is called by:
		_main
 This function uses a non-reentrant model


 *************** function _TCP_Init *****************
 Defined at:
		line 1173 in file "../../TCPIP Library/source/tcpv4.c"
 Parameters:    Size  Location     Type
		None
 Auto vars:     Size  Location     Type
		None
 Return value:  Size  Location     Type
		None               void
 Registers used:
		wreg, status,2
 Tracked objects:
		On entry : 
		On exit  : 
		Unchanged: 
 Data sizes:     COMRAM   BANK0   BANK1   BANK2   BANK3   BANK4   BANK5   BANK6   BANK7   BANK8   BANK9  BANK10  BANK11  BANK12  BANK13  BANK14  BANK15
      Params:         0       0       0       0       0       0       0       0       0       0       0       0       0       0       0       0       0
      Locals:         0       0       0       0       0       0       0       0       0       0       0       0       0       0       0       0       0
      Temps:          0       0       0       0       0       0       0       0       0       0       0       0       0       0       0       0       0
      Totals:         0       0       0       0       0       0       0       0       0       0       0       0       0       0       0       0       0
Total ram usage:        0 bytes
 Hardware stack levels used:    1
 Hardware stack levels required when called:    8
 This function calls:
		Nothing
 This function is called by:
		_Network_Init
 This function uses a non-reentrant model


 *************** function _IPV4_Init *****************
 Defined at:
		line 78 in file "../../TCPIP Library/source/ipv4.c"
 Parameters:    Size  Location     Type
		None
 Auto vars:     Size  Location     Type
		None
 Return value:  Size  Location     Type
		None               void
 Registers used:
		None
 Tracked objects:
		On entry : 
		On exit  : 
		Unchanged: 
 Data sizes:     COMRAM   BANK0   BANK1   BANK2   BANK3   BANK4   BANK5   BANK6   BANK7   BANK8   BANK9  BANK10  BANK11  BANK12  BANK13  BANK14  BANK15
      Params:         0       0       0       0       0       0       0       0       0       0       0       0       0       0       0       0       0
      Locals:         0       0       0       0       0       0       0       0       0       0       0       0       0       0       0       0       0
      Temps:          0       0       0       0       0       0       0       0       0       0       0       0       0       0       0       0       0
      Totals:         0       0       0       0       0       0       0       0       0       0       0       0       0       0       0       0       0
Total ram usage:        0 bytes
 Hardware stack levels used:    1
 Hardware stack levels required when called:    8
 This function calls:
		Nothing
 This function is called by:
		_Network_Init
 This function uses a non-reentrant model


 *************** function _ETH_Init *****************
 Defined at:
		line 100 in file "../../TCPIP Library/ethernet_drivers/j60_driver.c"
 Parameters:    Size  Location     Type
		None
 Auto vars:     Size  Location     Type
  phycon1_valu    2    0        unsigned int 
  mac             1   44[COMRAM] PTR const struct .
		 -> macAddress(6), 
 Return value:  Size  Location     Type
		None               void
 Registers used:
		wreg, status,2, status,0, tblptrl, tblptrh, tblptru, cstack
 Tracked objects:
		On entry : 
		On exit  : 
		Unchanged: 
 Data sizes:     COMRAM   BANK0   BANK1   BANK2   BANK3   BANK4   BANK5   BANK6   BANK7   BANK8   BANK9  BANK10  BANK11  BANK12  BANK13  BANK14  BANK15
      Params:         0       0       0       0       0       0       0       0       0       0       0       0       0       0       0       0       0
      Locals:         3       0       0       0       0       0       0       0       0       0       0       0       0       0       0       0       0
      Temps:          1       0       0       0       0       0       0       0       0       0       0       0       0       0       0       0       0
      Totals:         4       0       0       0       0       0       0       0       0       0       0       0       0       0       0       0       0
Total ram usage:        4 bytes
 Hardware stack levels used:    1
 Hardware stack levels required when called:   12
 This function calls:
		_ETH_CheckLinkUp
		_MAC_getAddress
		_PHY_Write
 This function is called by:
		_Network_Init
 This function uses a non-reentrant model


 *************** function _PHY_Write *****************
 Defined at:
		line 317 in file "../../TCPIP Library/ethernet_drivers/j60_driver.c"
 Parameters:    Size  Location     Type
  reg             1    wreg     enum E7098
  data            2   24[COMRAM] unsigned int 
 Auto vars:     Size  Location     Type
  reg             1   26[COMRAM] enum E7098
  GIESave         1   27[COMRAM] unsigned char 
 Return value:  Size  Location     Type
                  1    wreg      enum E7107
 Registers used:
		wreg, status,2, status,0, cstack
 Tracked objects:
		On entry : 
		On exit  : 
		Unchanged: 
 Data sizes:     COMRAM   BANK0   BANK1   BANK2   BANK3   BANK4   BANK5   BANK6   BANK7   BANK8   BANK9  BANK10  BANK11  BANK12  BANK13  BANK14  BANK15
      Params:         2       0       0       0       0       0       0       0       0       0       0       0       0       0       0       0       0
      Locals:         2       0       0       0       0       0       0       0       0       0       0       0       0       0       0       0       0
      Temps:          0       0       0       0       0       0       0       0       0       0       0       0       0       0       0       0       0
      Totals:         4       0       0       0       0       0       0       0       0       0       0       0       0       0       0       0       0
Total ram usage:        4 bytes
 Hardware stack levels used:    1
 Hardware stack levels required when called:    9
 This function calls:
		_PHY_WaitForBusy
 This function is called by:
		_ETH_Init
 This function uses a non-reentrant model


 *************** function _MAC_getAddress *****************
 Defined at:
		line 46 in file "../../TCPIP Library/source/mac_address.c"
 Parameters:    Size  Location     Type
		None
 Auto vars:     Size  Location     Type
		None
 Return value:  Size  Location     Type
                  1    wreg      PTR const struct .
 Registers used:
		wreg
 Tracked objects:
		On entry : 
		On exit  : 
		Unchanged: 
 Data sizes:     COMRAM   BANK0   BANK1   BANK2   BANK3   BANK4   BANK5   BANK6   BANK7   BANK8   BANK9  BANK10  BANK11  BANK12  BANK13  BANK14  BANK15
      Params:         2       0       0       0       0       0       0       0       0       0       0       0       0       0       0       0       0
      Locals:         0       0       0       0       0       0       0       0       0       0       0       0       0       0       0       0       0
      Temps:          0       0       0       0       0       0       0       0       0       0       0       0       0       0       0       0       0
      Totals:         2       0       0       0       0       0       0       0       0       0       0       0       0       0       0       0       0
Total ram usage:        2 bytes
 Hardware stack levels used:    1
 Hardware stack levels required when called:    8
 This function calls:
		Nothing
 This function is called by:
		_ETH_Init
 This function uses a non-reentrant model


 *************** function _ETH_CheckLinkUp *****************
 Defined at:
		line 198 in file "../../TCPIP Library/ethernet_drivers/j60_driver.c"
 Parameters:    Size  Location     Type
		None
 Auto vars:     Size  Location     Type
  value           4   37[COMRAM] unsigned long 
 Return value:  Size  Location     Type
                  1    wreg      unsigned char 
 Registers used:
		wreg, status,2, status,0, cstack
 Tracked objects:
		On entry : 
		On exit  : 
		Unchanged: 
 Data sizes:     COMRAM   BANK0   BANK1   BANK2   BANK3   BANK4   BANK5   BANK6   BANK7   BANK8   BANK9  BANK10  BANK11  BANK12  BANK13  BANK14  BANK15
      Params:         0       0       0       0       0       0       0       0       0       0       0       0       0       0       0       0       0
      Locals:         4       0       0       0       0       0       0       0       0       0       0       0       0       0       0       0       0
      Temps:          0       0       0       0       0       0       0       0       0       0       0       0       0       0       0       0       0
      Totals:         4       0       0       0       0       0       0       0       0       0       0       0       0       0       0       0       0
Total ram usage:        4 bytes
 Hardware stack levels used:    1
 Hardware stack levels required when called:   11
 This function calls:
		_ETH_readLinkStatus
 This function is called by:
		_ETH_Init
		_ETH_EventHandler
		_Network_WaitForLink
 This function uses a non-reentrant model


 *************** function _ETH_readLinkStatus *****************
 Defined at:
		line 193 in file "../../TCPIP Library/ethernet_drivers/j60_driver.c"
 Parameters:    Size  Location     Type
		None
 Auto vars:     Size  Location     Type
		None
 Return value:  Size  Location     Type
                  4   33[COMRAM] unsigned long 
 Registers used:
		wreg, status,2, status,0, cstack
 Tracked objects:
		On entry : 
		On exit  : 
		Unchanged: 
 Data sizes:     COMRAM   BANK0   BANK1   BANK2   BANK3   BANK4   BANK5   BANK6   BANK7   BANK8   BANK9  BANK10  BANK11  BANK12  BANK13  BANK14  BANK15
      Params:         4       0       0       0       0       0       0       0       0       0       0       0       0       0       0       0       0
      Locals:         0       0       0       0       0       0       0       0       0       0       0       0       0       0       0       0       0
      Temps:          0       0       0       0       0       0       0       0       0       0       0       0       0       0       0       0       0
      Totals:         4       0       0       0       0       0       0       0       0       0       0       0       0       0       0       0       0
Total ram usage:        4 bytes
 Hardware stack levels used:    1
 Hardware stack levels required when called:   10
 This function calls:
		_PHY_Read
 This function is called by:
		_ETH_CheckLinkUp
 This function uses a non-reentrant model


 *************** function _PHY_Read *****************
 Defined at:
		line 350 in file "../../TCPIP Library/ethernet_drivers/j60_driver.c"
 Parameters:    Size  Location     Type
  reg             1    wreg     enum E7098
 Auto vars:     Size  Location     Type
  reg             1   28[COMRAM] enum E7098
  ret             4   29[COMRAM] long 
 Return value:  Size  Location     Type
                  4   24[COMRAM] long 
 Registers used:
		wreg, status,2, status,0, cstack
 Tracked objects:
		On entry : 
		On exit  : 
		Unchanged: 
 Data sizes:     COMRAM   BANK0   BANK1   BANK2   BANK3   BANK4   BANK5   BANK6   BANK7   BANK8   BANK9  BANK10  BANK11  BANK12  BANK13  BANK14  BANK15
      Params:         4       0       0       0       0       0       0       0       0       0       0       0       0       0       0       0       0
      Locals:         5       0       0       0       0       0       0       0       0       0       0       0       0       0       0       0       0
      Temps:          0       0       0       0       0       0       0       0       0       0       0       0       0       0       0       0       0
      Totals:         9       0       0       0       0       0       0       0       0       0       0       0       0       0       0       0       0
Total ram usage:        9 bytes
 Hardware stack levels used:    1
 Hardware stack levels required when called:    9
 This function calls:
		_PHY_WaitForBusy
 This function is called by:
		_ETH_readLinkStatus
		_ETH_EventHandler
 This function uses a non-reentrant model


 *************** function _PHY_WaitForBusy *****************
 Defined at:
		line 298 in file "../../TCPIP Library/ethernet_drivers/j60_driver.c"
 Parameters:    Size  Location     Type
		None
 Auto vars:     Size  Location     Type
  timeout         1   23[COMRAM] unsigned char 
  ret             1   22[COMRAM] enum E7107
 Return value:  Size  Location     Type
                  1    wreg      enum E7107
 Registers used:
		wreg, status,2, status,0
 Tracked objects:
		On entry : 
		On exit  : 
		Unchanged: 
 Data sizes:     COMRAM   BANK0   BANK1   BANK2   BANK3   BANK4   BANK5   BANK6   BANK7   BANK8   BANK9  BANK10  BANK11  BANK12  BANK13  BANK14  BANK15
      Params:         0       0       0       0       0       0       0       0       0       0       0       0       0       0       0       0       0
      Locals:         2       0       0       0       0       0       0       0       0       0       0       0       0       0       0       0       0
      Temps:          0       0       0       0       0       0       0       0       0       0       0       0       0       0       0       0       0
      Totals:         2       0       0       0       0       0       0       0       0       0       0       0       0       0       0       0       0
Total ram usage:        2 bytes
 Hardware stack levels used:    1
 Hardware stack levels required when called:    8
 This function calls:
		Nothing
 This function is called by:
		_PHY_Write
		_PHY_Read
 This function uses a non-reentrant model


 *************** function _ARPV4_Init *****************
 Defined at:
		line 86 in file "../../TCPIP Library/source/arpv4.c"
 Parameters:    Size  Location     Type
		None
 Auto vars:     Size  Location     Type
  x               1   22[COMRAM] unsigned char 
 Return value:  Size  Location     Type
		None               void
 Registers used:
		wreg, fsr2l, fsr2h, status,2, status,0
 Tracked objects:
		On entry : 
		On exit  : 
		Unchanged: 
 Data sizes:     COMRAM   BANK0   BANK1   BANK2   BANK3   BANK4   BANK5   BANK6   BANK7   BANK8   BANK9  BANK10  BANK11  BANK12  BANK13  BANK14  BANK15
      Params:         0       0       0       0       0       0       0       0       0       0       0       0       0       0       0       0       0
      Locals:         1       0       0       0       0       0       0       0       0       0       0       0       0       0       0       0       0
      Temps:          0       0       0       0       0       0       0       0       0       0       0       0       0       0       0       0       0
      Totals:         1       0       0       0       0       0       0       0       0       0       0       0       0       0       0       0       0
Total ram usage:        1 bytes
 Hardware stack levels used:    1
 Hardware stack levels required when called:    8
 This function calls:
		Nothing
 This function is called by:
		_Network_Init
 This function uses a non-reentrant model


 *************** function _IPV4_GetMyIP *****************
 Defined at:
		line 288 in file "../../TCPIP Library/source/ipv4.c"
 Parameters:    Size  Location     Type
		None
 Auto vars:     Size  Location     Type
		None
 Return value:  Size  Location     Type
                  4   22[COMRAM] unsigned long 
 Registers used:
		None
 Tracked objects:
		On entry : 
		On exit  : 
		Unchanged: 
 Data sizes:     COMRAM   BANK0   BANK1   BANK2   BANK3   BANK4   BANK5   BANK6   BANK7   BANK8   BANK9  BANK10  BANK11  BANK12  BANK13  BANK14  BANK15
      Params:         4       0       0       0       0       0       0       0       0       0       0       0       0       0       0       0       0
      Locals:         0       0       0       0       0       0       0       0       0       0       0       0       0       0       0       0       0
      Temps:          0       0       0       0       0       0       0       0       0       0       0       0       0       0       0       0       0
      Totals:         4       0       0       0       0       0       0       0       0       0       0       0       0       0       0       0       0
Total ram usage:        4 bytes
 Hardware stack levels used:    1
 Hardware stack levels required when called:    8
 This function calls:
		Nothing
 This function is called by:
		_main
 This function uses a non-reentrant model


 *************** function _DEMO_TCP_Client *****************
 Defined at:
		line 81 in file "main.c"
 Parameters:    Size  Location     Type
		None
 Auto vars:     Size  Location     Type
  strTmp         17   33[BANK1 ] unsigned char [17]
  rx_len          2   30[BANK1 ] unsigned int 
  pot             2   27[BANK1 ] unsigned int 
  temperature     2   25[BANK1 ] unsigned int 
  ledNr           1   32[BANK1 ] unsigned char 
  socketState     1   29[BANK1 ] enum E7369
 Return value:  Size  Location     Type
		None               void
 Registers used:
		wreg, fsr0l, fsr0h, fsr1l, fsr1h, fsr2l, fsr2h, status,2, status,0, pclat, tosl, tblptrl, tblptrh, tblptru, prodl, prodh, cstack
 Tracked objects:
		On entry : 
		On exit  : 
		Unchanged: 
 Data sizes:     COMRAM   BANK0   BANK1   BANK2   BANK3   BANK4   BANK5   BANK6   BANK7   BANK8   BANK9  BANK10  BANK11  BANK12  BANK13  BANK14  BANK15
      Params:         0       0       0       0       0       0       0       0       0       0       0       0       0       0       0       0       0
      Locals:         0       0      25       0       0       0       0       0       0       0       0       0       0       0       0       0       0
      Temps:          0       0       2       0       0       0       0       0       0       0       0       0       0       0       0       0       0
      Totals:         0       0      27       0       0       0       0       0       0       0       0       0       0       0       0       0       0
Total ram usage:       27 bytes
 Hardware stack levels used:    1
 Hardware stack levels required when called:   16
 This function calls:
		_ADC_GetConversion
		_TCP_Connect
		_TCP_GetReceivedData
		_TCP_InsertRxBuffer
		_TCP_Send
		_TCP_SendDone
		_TCP_SocketInit
		_TCP_SocketPoll
		_lcd_goto2
		_lcd_puts
		_memset
		_sprintf
		_strlen
		_time
 This function is called by:
		_main
 This function uses a non-reentrant model


 *************** function _time *****************
 Defined at:
		line 198 in file "../board_support_package/picdem2_net/rtcc.c"
 Parameters:    Size  Location     Type
  t               2   22[COMRAM] PTR long 
		 -> main@now_p(4), DEMO_TCP_Client@t_client(4), Network_Manage@now(4), arpTimer(4), 
		 -> NULL(0), 
 Auto vars:     Size  Location     Type
  the_time        4   27[COMRAM] long 
  gie_val         1   26[COMRAM] unsigned char 
 Return value:  Size  Location     Type
                  4   22[COMRAM] long 
 Registers used:
		wreg, fsr2l, fsr2h, status,2, status,0
 Tracked objects:
		On entry : 
		On exit  : 
		Unchanged: 
 Data sizes:     COMRAM   BANK0   BANK1   BANK2   BANK3   BANK4   BANK5   BANK6   BANK7   BANK8   BANK9  BANK10  BANK11  BANK12  BANK13  BANK14  BANK15
      Params:         4       0       0       0       0       0       0       0       0       0       0       0       0       0       0       0       0
      Locals:         5       0       0       0       0       0       0       0       0       0       0       0       0       0       0       0       0
      Temps:          0       0       0       0       0       0       0       0       0       0       0       0       0       0       0       0       0
      Totals:         9       0       0       0       0       0       0       0       0       0       0       0       0       0       0       0       0
Total ram usage:        9 bytes
 Hardware stack levels used:    1
 Hardware stack levels required when called:    8
 This function calls:
		Nothing
 This function is called by:
		_Network_Init
		_Network_Manage
		_SYSLOG_Init
		_SYSLOG_Write
		_DEMO_TCP_Client
		_main
 This function uses a non-reentrant model


 *************** function _strlen *****************
 Defined at:
		line 4 in file "C:\Program Files (x86)\Microchip\xc8\v1.35\sources\common\strlen.c"
 Parameters:    Size  Location     Type
  s               2   22[COMRAM] PTR const unsigned char 
		 -> DEMO_TCP_Client@txdataPort60(80), 
 Auto vars:     Size  Location     Type
  cp              2   24[COMRAM] PTR const unsigned char 
		 -> DEMO_TCP_Client@txdataPort60(80), 
 Return value:  Size  Location     Type
                  2   22[COMRAM] unsigned int 
 Registers used:
		wreg, fsr2l, fsr2h, status,2, status,0
 Tracked objects:
		On entry : 
		On exit  : 
		Unchanged: 
 Data sizes:     COMRAM   BANK0   BANK1   BANK2   BANK3   BANK4   BANK5   BANK6   BANK7   BANK8   BANK9  BANK10  BANK11  BANK12  BANK13  BANK14  BANK15
      Params:         2       0       0       0       0       0       0       0       0       0       0       0       0       0       0       0       0
      Locals:         2       0       0       0       0       0       0       0       0       0       0       0       0       0       0       0       0
      Temps:          0       0       0       0       0       0       0       0       0       0       0       0       0       0       0       0       0
      Totals:         4       0       0       0       0       0       0       0       0       0       0       0       0       0       0       0       0
Total ram usage:        4 bytes
 Hardware stack levels used:    1
 Hardware stack levels required when called:    8
 This function calls:
		Nothing
 This function is called by:
		_DEMO_TCP_Client
 This function uses a non-reentrant model


 *************** function _sprintf *****************
 Defined at:
		line 13 in file "C:\Program Files (x86)\Microchip\xc8\v1.35\sources\common\sprintf.c"
 Parameters:    Size  Location     Type
  wh              2   40[COMRAM] PTR unsigned char 
		 -> main@str(32), DEMO_TCP_Client@txdataPort60(80), DEMO_TCP_Client@strTmp(17), Network_Read@debug_str(80), 
  f               1   42[COMRAM] PTR const unsigned char 
		 -> STR_9(12), STR_6(61), STR_5(3), STR_2(8), 
 Auto vars:     Size  Location     Type
  pb              5   14[BANK0 ] struct __prbuf
  ap              1   13[BANK0 ] PTR void [1]
		 -> ?_sprintf(2), ?_printf(2), 
 Return value:  Size  Location     Type
                  2   40[COMRAM] int 
 Registers used:
		wreg, fsr0l, fsr0h, fsr2l, fsr2h, status,2, status,0, pclat, tosl, tblptrl, tblptrh, tblptru, prodl, prodh, cstack
 Tracked objects:
		On entry : 
		On exit  : 
		Unchanged: 
 Data sizes:     COMRAM   BANK0   BANK1   BANK2   BANK3   BANK4   BANK5   BANK6   BANK7   BANK8   BANK9  BANK10  BANK11  BANK12  BANK13  BANK14  BANK15
      Params:        11       0       0       0       0       0       0       0       0       0       0       0       0       0       0       0       0
      Locals:         0       6       0       0       0       0       0       0       0       0       0       0       0       0       0       0       0
      Temps:          0       0       0       0       0       0       0       0       0       0       0       0       0       0       0       0       0
      Totals:        11       6       0       0       0       0       0       0       0       0       0       0       0       0       0       0       0
Total ram usage:       17 bytes
 Hardware stack levels used:    1
 Hardware stack levels required when called:   10
 This function calls:
		__doprnt
 This function is called by:
		_Network_Read
		_DEMO_TCP_Client
		_main
 This function uses a non-reentrant model


 *************** function __doprnt *****************
 Defined at:
		line 458 in file "C:\Program Files (x86)\Microchip\xc8\v1.35\sources\common\doprnt.c"
 Parameters:    Size  Location     Type
  pb              1    wreg     PTR struct __prbuf
		 -> sprintf@pb(5), printf@pb(5), 
  f               1   34[COMRAM] PTR const unsigned char 
		 -> STR_9(12), STR_6(61), STR_5(3), STR_4(10), 
		 -> STR_3(28), STR_2(8), 
  ap              1   35[COMRAM] PTR PTR void 
		 -> sprintf@ap(1), printf@ap(1), 
 Auto vars:     Size  Location     Type
  pb              1   12[BANK0 ] PTR struct __prbuf
		 -> sprintf@pb(5), printf@pb(5), 
  idx             1    0[BANK0 ] unsigned char 
  tmpval          4    0        struct .
  width           2    9[BANK0 ] int 
  val             2    7[BANK0 ] unsigned int 
  cp              2    4[BANK0 ] PTR const unsigned char 
		 -> ?_sprintf(2), ?_printf(2), STR_10(7), main@str(32), 
		 -> STR_8(13), STR_7(17), DEMO_TCP_Client@txdataPort60(80), DEMO_TCP_Client@strTmp(17), 
		 -> DEMO_TCP_Client@rxdataPort60(50), Network_Read@debug_str(80), STR_1(15), NULL(0), 
  len             2    2[BANK0 ] unsigned int 
  c               1   11[BANK0 ] char 
  flag            1    6[BANK0 ] unsigned char 
  prec            1    1[BANK0 ] char 
 Return value:  Size  Location     Type
                  2   34[COMRAM] int 
 Registers used:
		wreg, fsr0l, fsr0h, fsr2l, fsr2h, status,2, status,0, pclat, tosl, tblptrl, tblptrh, tblptru, prodl, prodh, cstack
 Tracked objects:
		On entry : 
		On exit  : 
		Unchanged: 
 Data sizes:     COMRAM   BANK0   BANK1   BANK2   BANK3   BANK4   BANK5   BANK6   BANK7   BANK8   BANK9  BANK10  BANK11  BANK12  BANK13  BANK14  BANK15
      Params:         2       0       0       0       0       0       0       0       0       0       0       0       0       0       0       0       0
      Locals:         0      13       0       0       0       0       0       0       0       0       0       0       0       0       0       0       0
      Temps:          4       0       0       0       0       0       0       0       0       0       0       0       0       0       0       0       0
      Totals:         6      13       0       0       0       0       0       0       0       0       0       0       0       0       0       0       0
Total ram usage:       19 bytes
 Hardware stack levels used:    1
 Hardware stack levels required when called:    9
 This function calls:
		Absolute function
		___lwdiv
		___lwmod
		___wmul
		_isdigit
		_putch
 This function is called by:
		_printf
		_sprintf
 This function uses a non-reentrant model


 *************** function _putch *****************
 Defined at:
		line 77 in file "../board_support_package/picdem2_net/uart.c"
 Parameters:    Size  Location     Type
  data            1    wreg     unsigned char 
 Auto vars:     Size  Location     Type
  data            1   22[COMRAM] unsigned char 
 Return value:  Size  Location     Type
		None               void
 Registers used:
		wreg, status,2, status,0
 Tracked objects:
		On entry : 
		On exit  : 
		Unchanged: 
 Data sizes:     COMRAM   BANK0   BANK1   BANK2   BANK3   BANK4   BANK5   BANK6   BANK7   BANK8   BANK9  BANK10  BANK11  BANK12  BANK13  BANK14  BANK15
      Params:         0       0       0       0       0       0       0       0       0       0       0       0       0       0       0       0       0
      Locals:         1       0       0       0       0       0       0       0       0       0       0       0       0       0       0       0       0
      Temps:          0       0       0       0       0       0       0       0       0       0       0       0       0       0       0       0       0
      Totals:         1       0       0       0       0       0       0       0       0       0       0       0       0       0       0       0       0
Total ram usage:        1 bytes
 Hardware stack levels used:    1
 Hardware stack levels required when called:    8
 This function calls:
		Nothing
 This function is called by:
		_printf
		__doprnt
 This function uses a non-reentrant model


 *************** function _isdigit *****************
 Defined at:
		line 8 in file "C:\Program Files (x86)\Microchip\xc8\v1.35\sources\common\isdigit.c"
 Parameters:    Size  Location     Type
  c               1    wreg     unsigned char 
 Auto vars:     Size  Location     Type
  c               1   24[COMRAM] unsigned char 
 Return value:  Size  Location     Type
		None               void
 Registers used:
		wreg, status,2, status,0
 Tracked objects:
		On entry : 
		On exit  : 
		Unchanged: 
 Data sizes:     COMRAM   BANK0   BANK1   BANK2   BANK3   BANK4   BANK5   BANK6   BANK7   BANK8   BANK9  BANK10  BANK11  BANK12  BANK13  BANK14  BANK15
      Params:         0       0       0       0       0       0       0       0       0       0       0       0       0       0       0       0       0
      Locals:         2       0       0       0       0       0       0       0       0       0       0       0       0       0       0       0       0
      Temps:          1       0       0       0       0       0       0       0       0       0       0       0       0       0       0       0       0
      Totals:         3       0       0       0       0       0       0       0       0       0       0       0       0       0       0       0       0
Total ram usage:        3 bytes
 Hardware stack levels used:    1
 Hardware stack levels required when called:    8
 This function calls:
		Nothing
 This function is called by:
		__doprnt
 This function uses a non-reentrant model


 *************** function ___wmul *****************
 Defined at:
		line 15 in file "C:\Program Files (x86)\Microchip\xc8\v1.35\sources\common\Umul16.c"
 Parameters:    Size  Location     Type
  multiplier      2   22[COMRAM] unsigned int 
  multiplicand    2   24[COMRAM] unsigned int 
 Auto vars:     Size  Location     Type
  product         2   26[COMRAM] unsigned int 
 Return value:  Size  Location     Type
                  2   22[COMRAM] unsigned int 
 Registers used:
		wreg, status,2, status,0, prodl, prodh
 Tracked objects:
		On entry : 
		On exit  : 
		Unchanged: 
 Data sizes:     COMRAM   BANK0   BANK1   BANK2   BANK3   BANK4   BANK5   BANK6   BANK7   BANK8   BANK9  BANK10  BANK11  BANK12  BANK13  BANK14  BANK15
      Params:         4       0       0       0       0       0       0       0       0       0       0       0       0       0       0       0       0
      Locals:         2       0       0       0       0       0       0       0       0       0       0       0       0       0       0       0       0
      Temps:          0       0       0       0       0       0       0       0       0       0       0       0       0       0       0       0       0
      Totals:         6       0       0       0       0       0       0       0       0       0       0       0       0       0       0       0       0
Total ram usage:        6 bytes
 Hardware stack levels used:    1
 Hardware stack levels required when called:    8
 This function calls:
		Nothing
 This function is called by:
		_ETH_Copy
		__doprnt
 This function uses a non-reentrant model


 *************** function ___lwmod *****************
 Defined at:
		line 8 in file "C:\Program Files (x86)\Microchip\xc8\v1.35\sources\common\lwmod.c"
 Parameters:    Size  Location     Type
  dividend        2   29[COMRAM] unsigned int 
  divisor         2   31[COMRAM] unsigned int 
 Auto vars:     Size  Location     Type
  counter         1   33[COMRAM] unsigned char 
 Return value:  Size  Location     Type
                  2   29[COMRAM] unsigned int 
 Registers used:
		wreg, status,2, status,0
 Tracked objects:
		On entry : 
		On exit  : 
		Unchanged: 
 Data sizes:     COMRAM   BANK0   BANK1   BANK2   BANK3   BANK4   BANK5   BANK6   BANK7   BANK8   BANK9  BANK10  BANK11  BANK12  BANK13  BANK14  BANK15
      Params:         4       0       0       0       0       0       0       0       0       0       0       0       0       0       0       0       0
      Locals:         1       0       0       0       0       0       0       0       0       0       0       0       0       0       0       0       0
      Temps:          0       0       0       0       0       0       0       0       0       0       0       0       0       0       0       0       0
      Totals:         5       0       0       0       0       0       0       0       0       0       0       0       0       0       0       0       0
Total ram usage:        5 bytes
 Hardware stack levels used:    1
 Hardware stack levels required when called:    8
 This function calls:
		Nothing
 This function is called by:
		__doprnt
 This function uses a non-reentrant model


 *************** function ___lwdiv *****************
 Defined at:
		line 8 in file "C:\Program Files (x86)\Microchip\xc8\v1.35\sources\common\lwdiv.c"
 Parameters:    Size  Location     Type
  dividend        2   22[COMRAM] unsigned int 
  divisor         2   24[COMRAM] unsigned int 
 Auto vars:     Size  Location     Type
  quotient        2   27[COMRAM] unsigned int 
  counter         1   26[COMRAM] unsigned char 
 Return value:  Size  Location     Type
                  2   22[COMRAM] unsigned int 
 Registers used:
		wreg, status,2, status,0
 Tracked objects:
		On entry : 
		On exit  : 
		Unchanged: 
 Data sizes:     COMRAM   BANK0   BANK1   BANK2   BANK3   BANK4   BANK5   BANK6   BANK7   BANK8   BANK9  BANK10  BANK11  BANK12  BANK13  BANK14  BANK15
      Params:         4       0       0       0       0       0       0       0       0       0       0       0       0       0       0       0       0
      Locals:         3       0       0       0       0       0       0       0       0       0       0       0       0       0       0       0       0
      Temps:          0       0       0       0       0       0       0       0       0       0       0       0       0       0       0       0       0
      Totals:         7       0       0       0       0       0       0       0       0       0       0       0       0       0       0       0       0
Total ram usage:        7 bytes
 Hardware stack levels used:    1
 Hardware stack levels required when called:    8
 This function calls:
		Nothing
 This function is called by:
		__doprnt
 This function uses a non-reentrant model


 *************** function _memset *****************
 Defined at:
		line 8 in file "C:\Program Files (x86)\Microchip\xc8\v1.35\sources\common\memset.c"
 Parameters:    Size  Location     Type
  p1              2   22[COMRAM] PTR void 
		 -> main@str(32), DEMO_TCP_Client@strTmp(17), 
  c               2   24[COMRAM] int 
  n               2   26[COMRAM] unsigned int 
 Auto vars:     Size  Location     Type
  p               2   28[COMRAM] PTR unsigned char 
		 -> main@str(32), DEMO_TCP_Client@strTmp(17), 
 Return value:  Size  Location     Type
                  2   22[COMRAM] PTR void 
 Registers used:
		wreg, fsr2l, fsr2h, status,2, status,0
 Tracked objects:
		On entry : 
		On exit  : 
		Unchanged: 
 Data sizes:     COMRAM   BANK0   BANK1   BANK2   BANK3   BANK4   BANK5   BANK6   BANK7   BANK8   BANK9  BANK10  BANK11  BANK12  BANK13  BANK14  BANK15
      Params:         6       0       0       0       0       0       0       0       0       0       0       0       0       0       0       0       0
      Locals:         2       0       0       0       0       0       0       0       0       0       0       0       0       0       0       0       0
      Temps:          0       0       0       0       0       0       0       0       0       0       0       0       0       0       0       0       0
      Totals:         8       0       0       0       0       0       0       0       0       0       0       0       0       0       0       0       0
Total ram usage:        8 bytes
 Hardware stack levels used:    1
 Hardware stack levels required when called:    8
 This function calls:
		Nothing
 This function is called by:
		_DEMO_TCP_Client
		_main
 This function uses a non-reentrant model


 *************** function _lcd_puts *****************
 Defined at:
		line 86 in file "../board_support_package/picdem2_net/lcd.c"
 Parameters:    Size  Location     Type
  s               2   24[COMRAM] PTR const unsigned char 
		 -> main@str(32), DEMO_TCP_Client@strTmp(17), 
 Auto vars:     Size  Location     Type
		None
 Return value:  Size  Location     Type
		None               void
 Registers used:
		wreg, fsr2l, fsr2h, status,2, status,0, cstack
 Tracked objects:
		On entry : 
		On exit  : 
		Unchanged: 
 Data sizes:     COMRAM   BANK0   BANK1   BANK2   BANK3   BANK4   BANK5   BANK6   BANK7   BANK8   BANK9  BANK10  BANK11  BANK12  BANK13  BANK14  BANK15
      Params:         2       0       0       0       0       0       0       0       0       0       0       0       0       0       0       0       0
      Locals:         0       0       0       0       0       0       0       0       0       0       0       0       0       0       0       0       0
      Temps:          0       0       0       0       0       0       0       0       0       0       0       0       0       0       0       0       0
      Totals:         2       0       0       0       0       0       0       0       0       0       0       0       0       0       0       0       0
Total ram usage:        2 bytes
 Hardware stack levels used:    1
 Hardware stack levels required when called:   10
 This function calls:
		_lcd_putch
 This function is called by:
		_DEMO_TCP_Client
		_main
 This function uses a non-reentrant model


 *************** function _lcd_putch *****************
 Defined at:
		line 76 in file "../board_support_package/picdem2_net/lcd.c"
 Parameters:    Size  Location     Type
  c               1    wreg     unsigned char 
 Auto vars:     Size  Location     Type
  c               1   23[COMRAM] unsigned char 
 Return value:  Size  Location     Type
		None               void
 Registers used:
		wreg, status,2, status,0, cstack
 Tracked objects:
		On entry : 
		On exit  : 
		Unchanged: 
 Data sizes:     COMRAM   BANK0   BANK1   BANK2   BANK3   BANK4   BANK5   BANK6   BANK7   BANK8   BANK9  BANK10  BANK11  BANK12  BANK13  BANK14  BANK15
      Params:         0       0       0       0       0       0       0       0       0       0       0       0       0       0       0       0       0
      Locals:         1       0       0       0       0       0       0       0       0       0       0       0       0       0       0       0       0
      Temps:          0       0       0       0       0       0       0       0       0       0       0       0       0       0       0       0       0
      Totals:         1       0       0       0       0       0       0       0       0       0       0       0       0       0       0       0       0
Total ram usage:        1 bytes
 Hardware stack levels used:    1
 Hardware stack levels required when called:    9
 This function calls:
		_lcd_busy
		_lcd_write_data
 This function is called by:
		_lcd_puts
 This function uses a non-reentrant model


 *************** function _lcd_write_data *****************
 Defined at:
		line 71 in file "../board_support_package/picdem2_net/lcd_hw.c"
 Parameters:    Size  Location     Type
  d               1    wreg     unsigned char 
 Auto vars:     Size  Location     Type
  d               1   22[COMRAM] unsigned char 
 Return value:  Size  Location     Type
		None               void
 Registers used:
		wreg
 Tracked objects:
		On entry : 
		On exit  : 
		Unchanged: 
 Data sizes:     COMRAM   BANK0   BANK1   BANK2   BANK3   BANK4   BANK5   BANK6   BANK7   BANK8   BANK9  BANK10  BANK11  BANK12  BANK13  BANK14  BANK15
      Params:         0       0       0       0       0       0       0       0       0       0       0       0       0       0       0       0       0
      Locals:         1       0       0       0       0       0       0       0       0       0       0       0       0       0       0       0       0
      Temps:          0       0       0       0       0       0       0       0       0       0       0       0       0       0       0       0       0
      Totals:         1       0       0       0       0       0       0       0       0       0       0       0       0       0       0       0       0
Total ram usage:        1 bytes
 Hardware stack levels used:    1
 Hardware stack levels required when called:    8
 This function calls:
		Nothing
 This function is called by:
		_lcd_putch
 This function uses a non-reentrant model


 *************** function _lcd_goto2 *****************
 Defined at:
		line 102 in file "../board_support_package/picdem2_net/lcd.c"
 Parameters:    Size  Location     Type
  pos             1    wreg     unsigned char 
 Auto vars:     Size  Location     Type
  pos             1   23[COMRAM] unsigned char 
 Return value:  Size  Location     Type
		None               void
 Registers used:
		wreg, status,2, status,0, cstack
 Tracked objects:
		On entry : 
		On exit  : 
		Unchanged: 
 Data sizes:     COMRAM   BANK0   BANK1   BANK2   BANK3   BANK4   BANK5   BANK6   BANK7   BANK8   BANK9  BANK10  BANK11  BANK12  BANK13  BANK14  BANK15
      Params:         0       0       0       0       0       0       0       0       0       0       0       0       0       0       0       0       0
      Locals:         1       0       0       0       0       0       0       0       0       0       0       0       0       0       0       0       0
      Temps:          0       0       0       0       0       0       0       0       0       0       0       0       0       0       0       0       0
      Totals:         1       0       0       0       0       0       0       0       0       0       0       0       0       0       0       0       0
Total ram usage:        1 bytes
 Hardware stack levels used:    1
 Hardware stack levels required when called:    9
 This function calls:
		_lcd_busy
		_lcd_write_ctrl
 This function is called by:
		_DEMO_TCP_Client
 This function uses a non-reentrant model


 *************** function _lcd_write_ctrl *****************
 Defined at:
		line 59 in file "../board_support_package/picdem2_net/lcd_hw.c"
 Parameters:    Size  Location     Type
  c               1    wreg     unsigned char 
 Auto vars:     Size  Location     Type
  c               1   22[COMRAM] unsigned char 
 Return value:  Size  Location     Type
		None               void
 Registers used:
		wreg
 Tracked objects:
		On entry : 
		On exit  : 
		Unchanged: 
 Data sizes:     COMRAM   BANK0   BANK1   BANK2   BANK3   BANK4   BANK5   BANK6   BANK7   BANK8   BANK9  BANK10  BANK11  BANK12  BANK13  BANK14  BANK15
      Params:         0       0       0       0       0       0       0       0       0       0       0       0       0       0       0       0       0
      Locals:         1       0       0       0       0       0       0       0       0       0       0       0       0       0       0       0       0
      Temps:          0       0       0       0       0       0       0       0       0       0       0       0       0       0       0       0       0
      Totals:         1       0       0       0       0       0       0       0       0       0       0       0       0       0       0       0       0
Total ram usage:        1 bytes
 Hardware stack levels used:    1
 Hardware stack levels required when called:    8
 This function calls:
		Nothing
 This function is called by:
		_lcd_goto1
		_lcd_goto2
		_lcd_init
 This function uses a non-reentrant model


 *************** function _lcd_busy *****************
 Defined at:
		line 82 in file "../board_support_package/picdem2_net/lcd_hw.c"
 Parameters:    Size  Location     Type
		None
 Auto vars:     Size  Location     Type
		None
 Return value:  Size  Location     Type
		None               void
 Registers used:
		wreg
 Tracked objects:
		On entry : 
		On exit  : 
		Unchanged: 
 Data sizes:     COMRAM   BANK0   BANK1   BANK2   BANK3   BANK4   BANK5   BANK6   BANK7   BANK8   BANK9  BANK10  BANK11  BANK12  BANK13  BANK14  BANK15
      Params:         0       0       0       0       0       0       0       0       0       0       0       0       0       0       0       0       0
      Locals:         0       0       0       0       0       0       0       0       0       0       0       0       0       0       0       0       0
      Temps:          0       0       0       0       0       0       0       0       0       0       0       0       0       0       0       0       0
      Totals:         0       0       0       0       0       0       0       0       0       0       0       0       0       0       0       0       0
Total ram usage:        0 bytes
 Hardware stack levels used:    1
 Hardware stack levels required when called:    8
 This function calls:
		Nothing
 This function is called by:
		_lcd_putch
		_lcd_goto1
		_lcd_goto2
		_lcd_init
 This function uses a non-reentrant model


 *************** function _TCP_SocketInit *****************
 Defined at:
		line 1181 in file "../../TCPIP Library/source/tcpv4.c"
 Parameters:    Size  Location     Type
  tcbPtr          2   30[COMRAM] PTR struct .
		 -> DEMO_TCP_Client@port60TCB(55), 
 Auto vars:     Size  Location     Type
  ret             1    0        enum E177
 Return value:  Size  Location     Type
                  1    wreg      enum E177
 Registers used:
		wreg, fsr0l, fsr0h, fsr2l, fsr2h, status,2, status,0, tblptrl, tblptrh, tblptru, cstack
 Tracked objects:
		On entry : 
		On exit  : 
		Unchanged: 
 Data sizes:     COMRAM   BANK0   BANK1   BANK2   BANK3   BANK4   BANK5   BANK6   BANK7   BANK8   BANK9  BANK10  BANK11  BANK12  BANK13  BANK14  BANK15
      Params:         2       0       0       0       0       0       0       0       0       0       0       0       0       0       0       0       0
      Locals:         1       0       0       0       0       0       0       0       0       0       0       0       0       0       0       0       0
      Temps:          0       0       0       0       0       0       0       0       0       0       0       0       0       0       0       0       0
      Totals:         3       0       0       0       0       0       0       0       0       0       0       0       0       0       0       0       0
Total ram usage:        3 bytes
 Hardware stack levels used:    1
 Hardware stack levels required when called:    9
 This function calls:
		_TCB_Check
		_TCB_Insert
		_TCB_Reset
 This function is called by:
		_DEMO_TCP_Client
 This function uses a non-reentrant model


 *************** function _TCB_Insert *****************
 Defined at:
		line 80 in file "../../TCPIP Library/source/tcpv4.c"
 Parameters:    Size  Location     Type
  ptr             2   22[COMRAM] PTR struct .
		 -> DEMO_TCP_Client@port60TCB(55), 
 Auto vars:     Size  Location     Type
		None
 Return value:  Size  Location     Type
		None               void
 Registers used:
		wreg, fsr2l, fsr2h, status,2, status,0
 Tracked objects:
		On entry : 
		On exit  : 
		Unchanged: 
 Data sizes:     COMRAM   BANK0   BANK1   BANK2   BANK3   BANK4   BANK5   BANK6   BANK7   BANK8   BANK9  BANK10  BANK11  BANK12  BANK13  BANK14  BANK15
      Params:         2       0       0       0       0       0       0       0       0       0       0       0       0       0       0       0       0
      Locals:         0       0       0       0       0       0       0       0       0       0       0       0       0       0       0       0       0
      Temps:          0       0       0       0       0       0       0       0       0       0       0       0       0       0       0       0       0
      Totals:         2       0       0       0       0       0       0       0       0       0       0       0       0       0       0       0       0
Total ram usage:        2 bytes
 Hardware stack levels used:    1
 Hardware stack levels required when called:    8
 This function calls:
		Nothing
 This function is called by:
		_TCP_SocketInit
 This function uses a non-reentrant model


 *************** function _TCP_SendDone *****************
 Defined at:
		line 1347 in file "../../TCPIP Library/source/tcpv4.c"
 Parameters:    Size  Location     Type
  tcbPtr          2   30[COMRAM] PTR struct .
		 -> DEMO_TCP_Client@port60TCB(55), 
 Auto vars:     Size  Location     Type
  ret             1   32[COMRAM] unsigned char 
 Return value:  Size  Location     Type
                  1    wreg      unsigned char 
 Registers used:
		wreg, fsr0l, fsr0h, fsr2l, fsr2h, status,2, status,0, tblptrl, tblptrh, tblptru, cstack
 Tracked objects:
		On entry : 
		On exit  : 
		Unchanged: 
 Data sizes:     COMRAM   BANK0   BANK1   BANK2   BANK3   BANK4   BANK5   BANK6   BANK7   BANK8   BANK9  BANK10  BANK11  BANK12  BANK13  BANK14  BANK15
      Params:         2       0       0       0       0       0       0       0       0       0       0       0       0       0       0       0       0
      Locals:         1       0       0       0       0       0       0       0       0       0       0       0       0       0       0       0       0
      Temps:          0       0       0       0       0       0       0       0       0       0       0       0       0       0       0       0       0
      Totals:         3       0       0       0       0       0       0       0       0       0       0       0       0       0       0       0       0
Total ram usage:        3 bytes
 Hardware stack levels used:    1
 Hardware stack levels required when called:    9
 This function calls:
		_TCB_Check
 This function is called by:
		_DEMO_TCP_Client
 This function uses a non-reentrant model


 *************** function _TCP_Send *****************
 Defined at:
		line 1318 in file "../../TCPIP Library/source/tcpv4.c"
 Parameters:    Size  Location     Type
  tcbPtr          2  142[BANK0 ] PTR struct .
		 -> DEMO_TCP_Client@port60TCB(55), 
  data            2  144[BANK0 ] PTR unsigned char 
		 -> DEMO_TCP_Client@txdataPort60(80), 
  dataLen         2  146[BANK0 ] unsigned int 
 Auto vars:     Size  Location     Type
  ret             1    0        unsigned char 
 Return value:  Size  Location     Type
                  1    wreg      unsigned char 
 Registers used:
		wreg, fsr0l, fsr0h, fsr1l, fsr1h, fsr2l, fsr2h, status,2, status,0, tblptrl, tblptrh, tblptru, cstack
 Tracked objects:
		On entry : 
		On exit  : 
		Unchanged: 
 Data sizes:     COMRAM   BANK0   BANK1   BANK2   BANK3   BANK4   BANK5   BANK6   BANK7   BANK8   BANK9  BANK10  BANK11  BANK12  BANK13  BANK14  BANK15
      Params:         0       6       0       0       0       0       0       0       0       0       0       0       0       0       0       0       0
      Locals:         1       0       0       0       0       0       0       0       0       0       0       0       0       0       0       0       0
      Temps:          0       0       0       0       0       0       0       0       0       0       0       0       0       0       0       0       0
      Totals:         1       6       0       0       0       0       0       0       0       0       0       0       0       0       0       0       0
Total ram usage:        7 bytes
 Hardware stack levels used:    1
 Hardware stack levels required when called:   13
 This function calls:
		_TCP_Snd
		_TCP_SocketPoll
 This function is called by:
		_DEMO_TCP_Client
 This function uses a non-reentrant model


 *************** function _TCP_InsertRxBuffer *****************
 Defined at:
		line 1361 in file "../../TCPIP Library/source/tcpv4.c"
 Parameters:    Size  Location     Type
  tcbPtr          2   30[COMRAM] PTR struct .
		 -> DEMO_TCP_Client@port60TCB(55), 
  data            2   32[COMRAM] PTR unsigned char 
		 -> DEMO_TCP_Client@rxdataPort60(50), 
  data_len        2   34[COMRAM] unsigned int 
 Auto vars:     Size  Location     Type
  ret             1    0        unsigned char 
 Return value:  Size  Location     Type
                  1    wreg      unsigned char 
 Registers used:
		wreg, fsr0l, fsr0h, fsr1l, fsr1h, fsr2l, fsr2h, status,2, status,0, tblptrl, tblptrh, tblptru, cstack
 Tracked objects:
		On entry : 
		On exit  : 
		Unchanged: 
 Data sizes:     COMRAM   BANK0   BANK1   BANK2   BANK3   BANK4   BANK5   BANK6   BANK7   BANK8   BANK9  BANK10  BANK11  BANK12  BANK13  BANK14  BANK15
      Params:         6       0       0       0       0       0       0       0       0       0       0       0       0       0       0       0       0
      Locals:         1       0       0       0       0       0       0       0       0       0       0       0       0       0       0       0       0
      Temps:          0       0       0       0       0       0       0       0       0       0       0       0       0       0       0       0       0
      Totals:         7       0       0       0       0       0       0       0       0       0       0       0       0       0       0       0       0
Total ram usage:        7 bytes
 Hardware stack levels used:    1
 Hardware stack levels required when called:    9
 This function calls:
		_TCB_Check
 This function is called by:
		_DEMO_TCP_Client
 This function uses a non-reentrant model


 *************** function _TCP_GetReceivedData *****************
 Defined at:
		line 1383 in file "../../TCPIP Library/source/tcpv4.c"
 Parameters:    Size  Location     Type
  tcbPtr          2   30[COMRAM] PTR struct .
		 -> DEMO_TCP_Client@port60TCB(55), 
 Auto vars:     Size  Location     Type
  ret             2   36[COMRAM] int 
 Return value:  Size  Location     Type
                  2   30[COMRAM] int 
 Registers used:
		wreg, fsr0l, fsr0h, fsr2l, fsr2h, status,2, status,0, tblptrl, tblptrh, tblptru, cstack
 Tracked objects:
		On entry : 
		On exit  : 
		Unchanged: 
 Data sizes:     COMRAM   BANK0   BANK1   BANK2   BANK3   BANK4   BANK5   BANK6   BANK7   BANK8   BANK9  BANK10  BANK11  BANK12  BANK13  BANK14  BANK15
      Params:         2       0       0       0       0       0       0       0       0       0       0       0       0       0       0       0       0
      Locals:         2       0       0       0       0       0       0       0       0       0       0       0       0       0       0       0       0
      Temps:          4       0       0       0       0       0       0       0       0       0       0       0       0       0       0       0       0
      Totals:         8       0       0       0       0       0       0       0       0       0       0       0       0       0       0       0       0
Total ram usage:        8 bytes
 Hardware stack levels used:    1
 Hardware stack levels required when called:    9
 This function calls:
		_TCB_Check
 This function is called by:
		_DEMO_TCP_Client
 This function uses a non-reentrant model


 *************** function _TCP_Connect *****************
 Defined at:
		line 1272 in file "../../TCPIP Library/source/tcpv4.c"
 Parameters:    Size  Location     Type
  tcbPtr          2   17[BANK1 ] PTR struct .
		 -> DEMO_TCP_Client@port60TCB(55), 
  srvaddr         2   19[BANK1 ] PTR struct .
		 -> remoteSocket(6), 
 Auto vars:     Size  Location     Type
  ret             1    0        unsigned char 
 Return value:  Size  Location     Type
                  1    wreg      unsigned char 
 Registers used:
		wreg, fsr0l, fsr0h, fsr1l, fsr1h, fsr2l, fsr2h, status,2, status,0, tblptrl, tblptrh, tblptru, cstack
 Tracked objects:
		On entry : 
		On exit  : 
		Unchanged: 
 Data sizes:     COMRAM   BANK0   BANK1   BANK2   BANK3   BANK4   BANK5   BANK6   BANK7   BANK8   BANK9  BANK10  BANK11  BANK12  BANK13  BANK14  BANK15
      Params:         0       0       4       0       0       0       0       0       0       0       0       0       0       0       0       0       0
      Locals:         1       0       0       0       0       0       0       0       0       0       0       0       0       0       0       0       0
      Temps:          0       0       2       0       0       0       0       0       0       0       0       0       0       0       0       0       0
      Totals:         1       0       6       0       0       0       0       0       0       0       0       0       0       0       0       0       0
Total ram usage:        7 bytes
 Hardware stack levels used:    1
 Hardware stack levels required when called:   15
 This function calls:
		_TCP_FiniteStateMachine
		_TCP_SocketPoll
 This function is called by:
		_DEMO_TCP_Client
 This function uses a non-reentrant model


 *************** function _TCP_SocketPoll *****************
 Defined at:
		line 1220 in file "../../TCPIP Library/source/tcpv4.c"
 Parameters:    Size  Location     Type
  socket_ptr      2   30[COMRAM] PTR struct .
		 -> DEMO_TCP_Client@port60TCB(55), 
 Auto vars:     Size  Location     Type
  tmpSocketSta    1   32[COMRAM] enum E667
 Return value:  Size  Location     Type
                  1    wreg      enum E667
 Registers used:
		wreg, fsr0l, fsr0h, fsr2l, fsr2h, status,2, status,0, tblptrl, tblptrh, tblptru, cstack
 Tracked objects:
		On entry : 
		On exit  : 
		Unchanged: 
 Data sizes:     COMRAM   BANK0   BANK1   BANK2   BANK3   BANK4   BANK5   BANK6   BANK7   BANK8   BANK9  BANK10  BANK11  BANK12  BANK13  BANK14  BANK15
      Params:         2       0       0       0       0       0       0       0       0       0       0       0       0       0       0       0       0
      Locals:         1       0       0       0       0       0       0       0       0       0       0       0       0       0       0       0       0
      Temps:          0       0       0       0       0       0       0       0       0       0       0       0       0       0       0       0       0
      Totals:         3       0       0       0       0       0       0       0       0       0       0       0       0       0       0       0       0
Total ram usage:        3 bytes
 Hardware stack levels used:    1
 Hardware stack levels required when called:    9
 This function calls:
		_TCB_Check
 This function is called by:
		_TCP_Connect
		_TCP_Send
		_DEMO_TCP_Client
 This function uses a non-reentrant model


 *************** function _TCB_Check *****************
 Defined at:
		line 162 in file "../../TCPIP Library/source/tcpv4.c"
 Parameters:    Size  Location     Type
  ptr             2   22[COMRAM] PTR struct .
		 -> DEMO_TCP_Client@port60TCB(55), 
 Auto vars:     Size  Location     Type
  tcbPtr          2   28[COMRAM] PTR struct .
		 -> ?_sprintf(2), ?_printf(2), main@str(32), STR_8(13), 
		 -> STR_7(17), DEMO_TCP_Client@txdataPort60(80), DEMO_TCP_Client@strTmp(17), DEMO_TCP_Client@rxdataPort60(50), 
		 -> DEMO_TCP_Client@port60TCB(55), Network_Read@debug_str(80), STR_1(15), NULL(0), 
  count           1   27[COMRAM] char 
  ret             1   26[COMRAM] unsigned char 
 Return value:  Size  Location     Type
                  1    wreg      unsigned char 
 Registers used:
		wreg, fsr0l, fsr0h, status,2, status,0, tblptrl, tblptrh, tblptru
 Tracked objects:
		On entry : 
		On exit  : 
		Unchanged: 
 Data sizes:     COMRAM   BANK0   BANK1   BANK2   BANK3   BANK4   BANK5   BANK6   BANK7   BANK8   BANK9  BANK10  BANK11  BANK12  BANK13  BANK14  BANK15
      Params:         2       0       0       0       0       0       0       0       0       0       0       0       0       0       0       0       0
      Locals:         4       0       0       0       0       0       0       0       0       0       0       0       0       0       0       0       0
      Temps:          2       0       0       0       0       0       0       0       0       0       0       0       0       0       0       0       0
      Totals:         8       0       0       0       0       0       0       0       0       0       0       0       0       0       0       0       0
Total ram usage:        8 bytes
 Hardware stack levels used:    1
 Hardware stack levels required when called:    8
 This function calls:
		Nothing
 This function is called by:
		_TCP_SocketInit
		_TCP_SocketPoll
		_TCP_SendDone
		_TCP_InsertRxBuffer
		_TCP_GetReceivedData
 This function uses a non-reentrant model


 *************** function _TCP_FiniteStateMachine *****************
 Defined at:
		line 602 in file "../../TCPIP Library/source/tcpv4.c"
 Parameters:    Size  Location     Type
		None
 Auto vars:     Size  Location     Type
  notAckBytes     2   13[BANK1 ] unsigned int 
  nextState       1   16[BANK1 ] enum E638
  event           1   15[BANK1 ] enum E651
  ret             1   12[BANK1 ] unsigned char 
 Return value:  Size  Location     Type
                  1    wreg      unsigned char 
 Registers used:
		wreg, fsr0l, fsr0h, fsr2l, fsr2h, status,2, status,0, tblptrl, tblptrh, tblptru, cstack
 Tracked objects:
		On entry : 
		On exit  : 
		Unchanged: 
 Data sizes:     COMRAM   BANK0   BANK1   BANK2   BANK3   BANK4   BANK5   BANK6   BANK7   BANK8   BANK9  BANK10  BANK11  BANK12  BANK13  BANK14  BANK15
      Params:         0       0       0       0       0       0       0       0       0       0       0       0       0       0       0       0       0
      Locals:         0       0       5       0       0       0       0       0       0       0       0       0       0       0       0       0       0
      Temps:          0       0      12       0       0       0       0       0       0       0       0       0       0       0       0       0       0
      Totals:         0       0      17       0       0       0       0       0       0       0       0       0       0       0       0       0       0
Total ram usage:       17 bytes
 Hardware stack levels used:    1
 Hardware stack levels required when called:   14
 This function calls:
		_TCB_Reset
		_TCP_PayloadSave
		_TCP_Snd
 This function is called by:
		_TCP_Recv
		_TCP_Connect
		_TCP_Update
 This function uses a non-reentrant model


 *************** function _TCP_PayloadSave *****************
 Defined at:
		line 310 in file "../../TCPIP Library/source/tcpv4.c"
 Parameters:    Size  Location     Type
  len             2  142[BANK0 ] unsigned int 
 Auto vars:     Size  Location     Type
  buffer_size     2  157[BANK0 ] unsigned int 
  ret             1    0        unsigned char 
 Return value:  Size  Location     Type
                  1    wreg      unsigned char 
 Registers used:
		wreg, fsr0l, fsr0h, fsr2l, fsr2h, status,2, status,0, tblptrl, tblptrh, tblptru, cstack
 Tracked objects:
		On entry : 
		On exit  : 
		Unchanged: 
 Data sizes:     COMRAM   BANK0   BANK1   BANK2   BANK3   BANK4   BANK5   BANK6   BANK7   BANK8   BANK9  BANK10  BANK11  BANK12  BANK13  BANK14  BANK15
      Params:         0       2       0       0       0       0       0       0       0       0       0       0       0       0       0       0       0
      Locals:         0       3       0       0       0       0       0       0       0       0       0       0       0       0       0       0       0
      Temps:          0      12       0       0       0       0       0       0       0       0       0       0       0       0       0       0       0
      Totals:         0      17       0       0       0       0       0       0       0       0       0       0       0       0       0       0       0
Total ram usage:       17 bytes
 Hardware stack levels used:    1
 Hardware stack levels required when called:   13
 This function calls:
		_ETH_ReadBlock
		_TCP_Snd
 This function is called by:
		_TCP_FiniteStateMachine
 This function uses a non-reentrant model


 *************** function _TCP_Snd *****************
 Defined at:
		line 200 in file "../../TCPIP Library/source/tcpv4.c"
 Parameters:    Size  Location     Type
  tcbPtr          2   63[BANK0 ] PTR struct .
		 -> ?_sprintf(2), ?_printf(2), main@str(32), STR_8(13), 
		 -> STR_7(17), DEMO_TCP_Client@txdataPort60(80), DEMO_TCP_Client@strTmp(17), DEMO_TCP_Client@rxdataPort60(50), 
		 -> DEMO_TCP_Client@port60TCB(55), Network_Read@debug_str(80), STR_1(15), NULL(0), 
 Auto vars:     Size  Location     Type
  txHeader       20  122[BANK0 ] struct .
  tcpDataLengt    2  120[BANK0 ] unsigned int 
  payloadLengt    2  117[BANK0 ] unsigned int 
  cksm            2  115[BANK0 ] unsigned int 
  data            2  113[BANK0 ] PTR unsigned char 
		 -> ?_sprintf(2), ?_printf(2), main@str(32), STR_8(13), 
		 -> STR_7(17), DEMO_TCP_Client@txdataPort60(80), DEMO_TCP_Client@strTmp(17), DEMO_TCP_Client@rxdataPort60(50), 
		 -> Network_Read@debug_str(80), STR_1(15), NULL(0), 
  ret             1  119[BANK0 ] unsigned char 
 Return value:  Size  Location     Type
                  1    wreg      unsigned char 
 Registers used:
		wreg, fsr0l, fsr0h, fsr2l, fsr2h, status,2, status,0, tblptrl, tblptrh, tblptru, cstack
 Tracked objects:
		On entry : 
		On exit  : 
		Unchanged: 
 Data sizes:     COMRAM   BANK0   BANK1   BANK2   BANK3   BANK4   BANK5   BANK6   BANK7   BANK8   BANK9  BANK10  BANK11  BANK12  BANK13  BANK14  BANK15
      Params:         0       2       0       0       0       0       0       0       0       0       0       0       0       0       0       0       0
      Locals:         0      29       0       0       0       0       0       0       0       0       0       0       0       0       0       0       0
      Temps:          0      48       0       0       0       0       0       0       0       0       0       0       0       0       0       0       0
      Totals:         0      79       0       0       0       0       0       0       0       0       0       0       0       0       0       0       0
Total ram usage:       79 bytes
 Hardware stack levels used:    1
 Hardware stack levels required when called:   12
 This function calls:
		_ETH_Insert
		_ETH_TxComputeChecksum
		_ETH_WriteBlock
		_IPV4_Send
		_IPv4_Start
 This function is called by:
		_TCP_PayloadSave
		_TCP_FiniteStateMachine
		_TCP_Send
 This function uses a non-reentrant model


 *************** function _IPv4_Start *****************
 Defined at:
		line 213 in file "../../TCPIP Library/source/ipv4.c"
 Parameters:    Size  Location     Type
  destAddress     4   33[COMRAM] unsigned long 
  protocol        1   37[COMRAM] enum E6803
 Auto vars:     Size  Location     Type
  targetAddres    4   56[BANK0 ] unsigned long 
  macAddress      2   60[BANK0 ] PTR const struct .
		 -> arpMap.macAddress(6), broadcastMAC(6), arpMap(104), NULL(0), 
  ret             1   62[BANK0 ] enum E6944
 Return value:  Size  Location     Type
                  1    wreg      enum E366
 Registers used:
		wreg, fsr0l, fsr0h, fsr2l, fsr2h, status,2, status,0, tblptrl, tblptrh, tblptru, cstack
 Tracked objects:
		On entry : 
		On exit  : 
		Unchanged: 
 Data sizes:     COMRAM   BANK0   BANK1   BANK2   BANK3   BANK4   BANK5   BANK6   BANK7   BANK8   BANK9  BANK10  BANK11  BANK12  BANK13  BANK14  BANK15
      Params:         5       0       0       0       0       0       0       0       0       0       0       0       0       0       0       0       0
      Locals:         0       7       0       0       0       0       0       0       0       0       0       0       0       0       0       0       0
      Temps:          8       0       0       0       0       0       0       0       0       0       0       0       0       0       0       0       0
      Totals:        13       7       0       0       0       0       0       0       0       0       0       0       0       0       0       0       0
Total ram usage:       20 bytes
 Hardware stack levels used:    1
 Hardware stack levels required when called:   11
 This function calls:
		_ARPV4_Lookup
		_ARPV4_Request
		_ETH_Write16
		_ETH_Write32
		_ETH_Write8
		_ETH_WriteStart
 This function is called by:
		_ICMP_EchoReply
		_TCP_Snd
		_UDP_Start
 This function uses a non-reentrant model


 *************** function _ETH_Write8 *****************
 Defined at:
		line 465 in file "../../TCPIP Library/ethernet_drivers/j60_driver.c"
 Parameters:    Size  Location     Type
  data            1    wreg     unsigned char 
 Auto vars:     Size  Location     Type
  data            1   22[COMRAM] unsigned char 
 Return value:  Size  Location     Type
		None               void
 Registers used:
		wreg, status,2, cstack
 Tracked objects:
		On entry : 
		On exit  : 
		Unchanged: 
 Data sizes:     COMRAM   BANK0   BANK1   BANK2   BANK3   BANK4   BANK5   BANK6   BANK7   BANK8   BANK9  BANK10  BANK11  BANK12  BANK13  BANK14  BANK15
      Params:         0       0       0       0       0       0       0       0       0       0       0       0       0       0       0       0       0
      Locals:         1       0       0       0       0       0       0       0       0       0       0       0       0       0       0       0       0
      Temps:          0       0       0       0       0       0       0       0       0       0       0       0       0       0       0       0       0
      Totals:         1       0       0       0       0       0       0       0       0       0       0       0       0       0       0       0       0
Total ram usage:        1 bytes
 Hardware stack levels used:    1
 Hardware stack levels required when called:    9
 This function calls:
		_ETH_EdataWrite
 This function is called by:
		_DHCP_Request
		_DHCP_WriteZeros
		_IPv4_Start
 This function uses a non-reentrant model


 *************** function _ETH_Write32 *****************
 Defined at:
		line 495 in file "../../TCPIP Library/ethernet_drivers/j60_driver.c"
 Parameters:    Size  Location     Type
  data            4   22[COMRAM] unsigned long 
 Auto vars:     Size  Location     Type
		None
 Return value:  Size  Location     Type
		None               void
 Registers used:
		wreg, status,2, cstack
 Tracked objects:
		On entry : 
		On exit  : 
		Unchanged: 
 Data sizes:     COMRAM   BANK0   BANK1   BANK2   BANK3   BANK4   BANK5   BANK6   BANK7   BANK8   BANK9  BANK10  BANK11  BANK12  BANK13  BANK14  BANK15
      Params:         4       0       0       0       0       0       0       0       0       0       0       0       0       0       0       0       0
      Locals:         0       0       0       0       0       0       0       0       0       0       0       0       0       0       0       0       0
      Temps:          0       0       0       0       0       0       0       0       0       0       0       0       0       0       0       0       0
      Totals:         4       0       0       0       0       0       0       0       0       0       0       0       0       0       0       0       0
Total ram usage:        4 bytes
 Hardware stack levels used:    1
 Hardware stack levels required when called:    9
 This function calls:
		_ETH_EdataWrite
 This function is called by:
		_DHCP_Request
		_IPv4_Start
 This function uses a non-reentrant model


 *************** function _ETH_Write16 *****************
 Defined at:
		line 474 in file "../../TCPIP Library/ethernet_drivers/j60_driver.c"
 Parameters:    Size  Location     Type
  data            2   22[COMRAM] unsigned int 
 Auto vars:     Size  Location     Type
		None
 Return value:  Size  Location     Type
		None               void
 Registers used:
		wreg, status,2, cstack
 Tracked objects:
		On entry : 
		On exit  : 
		Unchanged: 
 Data sizes:     COMRAM   BANK0   BANK1   BANK2   BANK3   BANK4   BANK5   BANK6   BANK7   BANK8   BANK9  BANK10  BANK11  BANK12  BANK13  BANK14  BANK15
      Params:         2       0       0       0       0       0       0       0       0       0       0       0       0       0       0       0       0
      Locals:         0       0       0       0       0       0       0       0       0       0       0       0       0       0       0       0       0
      Temps:          0       0       0       0       0       0       0       0       0       0       0       0       0       0       0       0       0
      Totals:         2       0       0       0       0       0       0       0       0       0       0       0       0       0       0       0       0
Total ram usage:        2 bytes
 Hardware stack levels used:    1
 Hardware stack levels required when called:    9
 This function calls:
		_ETH_EdataWrite
 This function is called by:
		_DHCP_Request
		_ICMP_EchoReply
		_IPv4_Start
		_UDP_Start
 This function uses a non-reentrant model


 *************** function _ARPV4_Request *****************
 Defined at:
		line 194 in file "../../TCPIP Library/source/arpv4.c"
 Parameters:    Size  Location     Type
  destAddress     4   28[COMRAM] unsigned long 
 Auto vars:     Size  Location     Type
  header         28   28[BANK0 ] struct .
  ret             1   27[BANK0 ] enum E450
 Return value:  Size  Location     Type
                  1    wreg      enum E450
 Registers used:
		wreg, fsr0l, fsr0h, fsr2l, fsr2h, status,2, status,0, tblptrl, tblptrh, tblptru, cstack
 Tracked objects:
		On entry : 
		On exit  : 
		Unchanged: 
 Data sizes:     COMRAM   BANK0   BANK1   BANK2   BANK3   BANK4   BANK5   BANK6   BANK7   BANK8   BANK9  BANK10  BANK11  BANK12  BANK13  BANK14  BANK15
      Params:         4       0       0       0       0       0       0       0       0       0       0       0       0       0       0       0       0
      Locals:         0      29       0       0       0       0       0       0       0       0       0       0       0       0       0       0       0
      Temps:          0      27       0       0       0       0       0       0       0       0       0       0       0       0       0       0       0
      Totals:         4      56       0       0       0       0       0       0       0       0       0       0       0       0       0       0       0
Total ram usage:       60 bytes
 Hardware stack levels used:    1
 Hardware stack levels required when called:   10
 This function calls:
		_ETH_GetMAC
		_ETH_Send
		_ETH_WriteBlock
		_ETH_WriteStart
 This function is called by:
		_IPv4_Start
 This function uses a non-reentrant model


 *************** function _ETH_WriteStart *****************
 Defined at:
		line 526 in file "../../TCPIP Library/ethernet_drivers/j60_driver.c"
 Parameters:    Size  Location     Type
  dest_mac        2   22[COMRAM] PTR const struct .
		 -> arpMap.macAddress(6), broadcastMAC(6), header.sha(6), ARPV4_Packet@header(28), 
		 -> arpMap(104), NULL(0), 
  type            2   24[COMRAM] unsigned int 
 Auto vars:     Size  Location     Type
		None
 Return value:  Size  Location     Type
                  1    wreg      enum E6944
 Registers used:
		wreg, fsr0l, fsr0h, status,2, status,0, tblptrl, tblptrh, tblptru, cstack
 Tracked objects:
		On entry : 
		On exit  : 
		Unchanged: 
 Data sizes:     COMRAM   BANK0   BANK1   BANK2   BANK3   BANK4   BANK5   BANK6   BANK7   BANK8   BANK9  BANK10  BANK11  BANK12  BANK13  BANK14  BANK15
      Params:         4       0       0       0       0       0       0       0       0       0       0       0       0       0       0       0       0
      Locals:         0       0       0       0       0       0       0       0       0       0       0       0       0       0       0       0       0
      Temps:          2       0       0       0       0       0       0       0       0       0       0       0       0       0       0       0       0
      Totals:         6       0       0       0       0       0       0       0       0       0       0       0       0       0       0       0       0
Total ram usage:        6 bytes
 Hardware stack levels used:    1
 Hardware stack levels required when called:    9
 This function calls:
		_ETH_EdataWrite
		_ETH_ResetByteCount
 This function is called by:
		_ARPV4_Packet
		_ARPV4_Request
		_IPv4_Start
 This function uses a non-reentrant model


 *************** function _ETH_ResetByteCount *****************
 Defined at:
		line 833 in file "../../TCPIP Library/ethernet_drivers/j60_driver.c"
 Parameters:    Size  Location     Type
		None
 Auto vars:     Size  Location     Type
		None
 Return value:  Size  Location     Type
		None               void
 Registers used:
		None
 Tracked objects:
		On entry : 
		On exit  : 
		Unchanged: 
 Data sizes:     COMRAM   BANK0   BANK1   BANK2   BANK3   BANK4   BANK5   BANK6   BANK7   BANK8   BANK9  BANK10  BANK11  BANK12  BANK13  BANK14  BANK15
      Params:         0       0       0       0       0       0       0       0       0       0       0       0       0       0       0       0       0
      Locals:         0       0       0       0       0       0       0       0       0       0       0       0       0       0       0       0       0
      Temps:          0       0       0       0       0       0       0       0       0       0       0       0       0       0       0       0       0
      Totals:         0       0       0       0       0       0       0       0       0       0       0       0       0       0       0       0       0
Total ram usage:        0 bytes
 Hardware stack levels used:    1
 Hardware stack levels required when called:    8
 This function calls:
		Nothing
 This function is called by:
		_ETH_WriteStart
		_UDP_Start
 This function uses a non-reentrant model


 *************** function _ETH_WriteBlock *****************
 Defined at:
		line 509 in file "../../TCPIP Library/ethernet_drivers/j60_driver.c"
 Parameters:    Size  Location     Type
  buffer          2   22[COMRAM] PTR void 
		 -> ?_sprintf(2), ?_printf(2), main@str(32), STR_8(13), 
		 -> STR_7(17), DEMO_TCP_Client@txdataPort60(80), DEMO_TCP_Client@strTmp(17), DEMO_TCP_Client@rxdataPort60(50), 
		 -> TCP_Snd@txHeader(20), Network_Read@debug_str(80), dhcpName(21), DHCP_Request@ethMAC(6), 
		 -> ARPV4_Request@header(28), ARPV4_Packet@header(28), STR_1(15), NULL(0), 
  length          2   24[COMRAM] unsigned int 
 Auto vars:     Size  Location     Type
  p               2   26[COMRAM] PTR unsigned char 
		 -> ?_sprintf(2), ?_printf(2), main@str(32), STR_8(13), 
		 -> STR_7(17), DEMO_TCP_Client@txdataPort60(80), DEMO_TCP_Client@strTmp(17), DEMO_TCP_Client@rxdataPort60(50), 
		 -> TCP_Snd@txHeader(20), Network_Read@debug_str(80), dhcpName(21), DHCP_Request@ethMAC(6), 
		 -> ARPV4_Request@header(28), ARPV4_Packet@header(28), STR_1(15), NULL(0), 
 Return value:  Size  Location     Type
                  2   22[COMRAM] unsigned int 
 Registers used:
		wreg, fsr0l, fsr0h, status,2, status,0, tblptrl, tblptrh, tblptru, cstack
 Tracked objects:
		On entry : 
		On exit  : 
		Unchanged: 
 Data sizes:     COMRAM   BANK0   BANK1   BANK2   BANK3   BANK4   BANK5   BANK6   BANK7   BANK8   BANK9  BANK10  BANK11  BANK12  BANK13  BANK14  BANK15
      Params:         4       0       0       0       0       0       0       0       0       0       0       0       0       0       0       0       0
      Locals:         2       0       0       0       0       0       0       0       0       0       0       0       0       0       0       0       0
      Temps:          0       0       0       0       0       0       0       0       0       0       0       0       0       0       0       0       0
      Totals:         6       0       0       0       0       0       0       0       0       0       0       0       0       0       0       0       0
Total ram usage:        6 bytes
 Hardware stack levels used:    1
 Hardware stack levels required when called:    9
 This function calls:
		_ETH_EdataWrite
 This function is called by:
		_ARPV4_Packet
		_ARPV4_Request
		_DHCP_Request
		_TCP_Snd
 This function uses a non-reentrant model


 *************** function _ETH_GetMAC *****************
 Defined at:
		line 802 in file "../../TCPIP Library/ethernet_drivers/j60_driver.c"
 Parameters:    Size  Location     Type
  mac             1    wreg     PTR unsigned char 
		 -> DHCP_Handler@ethMAC(6), DHCP_Request@ethMAC(6), ARPV4_Request@header(28), header.sha(6), 
		 -> ARPV4_Packet@header(28), 
 Auto vars:     Size  Location     Type
  mac             1   22[COMRAM] PTR unsigned char 
		 -> DHCP_Handler@ethMAC(6), DHCP_Request@ethMAC(6), ARPV4_Request@header(28), header.sha(6), 
		 -> ARPV4_Packet@header(28), 
 Return value:  Size  Location     Type
		None               void
 Registers used:
		wreg, fsr2l, fsr2h, status,2, status,0
 Tracked objects:
		On entry : 
		On exit  : 
		Unchanged: 
 Data sizes:     COMRAM   BANK0   BANK1   BANK2   BANK3   BANK4   BANK5   BANK6   BANK7   BANK8   BANK9  BANK10  BANK11  BANK12  BANK13  BANK14  BANK15
      Params:         0       0       0       0       0       0       0       0       0       0       0       0       0       0       0       0       0
      Locals:         1       0       0       0       0       0       0       0       0       0       0       0       0       0       0       0       0
      Temps:          0       0       0       0       0       0       0       0       0       0       0       0       0       0       0       0       0
      Totals:         1       0       0       0       0       0       0       0       0       0       0       0       0       0       0       0       0
Total ram usage:        1 bytes
 Hardware stack levels used:    1
 Hardware stack levels required when called:    8
 This function calls:
		Nothing
 This function is called by:
		_ARPV4_Packet
		_ARPV4_Request
		_DHCP_Request
		_DHCP_Handler
 This function uses a non-reentrant model


 *************** function _ARPV4_Lookup *****************
 Defined at:
		line 234 in file "../../TCPIP Library/source/arpv4.c"
 Parameters:    Size  Location     Type
  ip_address      4   22[COMRAM] unsigned long 
 Auto vars:     Size  Location     Type
  entry_pointe    2   30[COMRAM] PTR struct .
		 -> arpMap(104), 
  x               1   32[COMRAM] unsigned char 
 Return value:  Size  Location     Type
                  2   22[COMRAM] PTR struct .
 Registers used:
		wreg, fsr2l, fsr2h, status,2, status,0
 Tracked objects:
		On entry : 
		On exit  : 
		Unchanged: 
 Data sizes:     COMRAM   BANK0   BANK1   BANK2   BANK3   BANK4   BANK5   BANK6   BANK7   BANK8   BANK9  BANK10  BANK11  BANK12  BANK13  BANK14  BANK15
      Params:         4       0       0       0       0       0       0       0       0       0       0       0       0       0       0       0       0
      Locals:         3       0       0       0       0       0       0       0       0       0       0       0       0       0       0       0       0
      Temps:          4       0       0       0       0       0       0       0       0       0       0       0       0       0       0       0       0
      Totals:        11       0       0       0       0       0       0       0       0       0       0       0       0       0       0       0       0
Total ram usage:       11 bytes
 Hardware stack levels used:    1
 Hardware stack levels required when called:    8
 This function calls:
		Nothing
 This function is called by:
		_IPv4_Start
 This function uses a non-reentrant model


 *************** function _IPV4_Send *****************
 Defined at:
		line 267 in file "../../TCPIP Library/source/ipv4.c"
 Parameters:    Size  Location     Type
  payloadLengt    2   48[COMRAM] unsigned int 
 Auto vars:     Size  Location     Type
  totalLength     2   18[BANK0 ] unsigned int 
  cksm            2   16[BANK0 ] unsigned int 
  ret             1   15[BANK0 ] enum E6944
 Return value:  Size  Location     Type
                  1    wreg      enum E366
 Registers used:
		wreg, fsr2l, fsr2h, status,2, status,0, cstack
 Tracked objects:
		On entry : 
		On exit  : 
		Unchanged: 
 Data sizes:     COMRAM   BANK0   BANK1   BANK2   BANK3   BANK4   BANK5   BANK6   BANK7   BANK8   BANK9  BANK10  BANK11  BANK12  BANK13  BANK14  BANK15
      Params:         2       0       0       0       0       0       0       0       0       0       0       0       0       0       0       0       0
      Locals:         0       5       0       0       0       0       0       0       0       0       0       0       0       0       0       0       0
      Temps:          0       4       0       0       0       0       0       0       0       0       0       0       0       0       0       0       0
      Totals:         2       9       0       0       0       0       0       0       0       0       0       0       0       0       0       0       0
Total ram usage:       11 bytes
 Hardware stack levels used:    1
 Hardware stack levels required when called:   11
 This function calls:
		_ETH_Insert
		_ETH_Send
		_ETH_TxComputeChecksum
 This function is called by:
		_ICMP_EchoReply
		_TCP_Snd
		_UDP_Send
 This function uses a non-reentrant model


 *************** function _ETH_TxComputeChecksum *****************
 Defined at:
		line 754 in file "../../TCPIP Library/ethernet_drivers/j60_driver.c"
 Parameters:    Size  Location     Type
  position        2   36[COMRAM] unsigned int 
  len             2   38[COMRAM] unsigned int 
  seed            2   40[COMRAM] unsigned int 
 Auto vars:     Size  Location     Type
  cksm            4   44[COMRAM] unsigned long 
  rxptr           2   42[COMRAM] unsigned int 
 Return value:  Size  Location     Type
                  2   36[COMRAM] unsigned int 
 Registers used:
		wreg, status,2, status,0, cstack
 Tracked objects:
		On entry : 
		On exit  : 
		Unchanged: 
 Data sizes:     COMRAM   BANK0   BANK1   BANK2   BANK3   BANK4   BANK5   BANK6   BANK7   BANK8   BANK9  BANK10  BANK11  BANK12  BANK13  BANK14  BANK15
      Params:         6       0       0       0       0       0       0       0       0       0       0       0       0       0       0       0       0
      Locals:         6       0       0       0       0       0       0       0       0       0       0       0       0       0       0       0       0
      Temps:          0      11       0       0       0       0       0       0       0       0       0       0       0       0       0       0       0
      Totals:        12      11       0       0       0       0       0       0       0       0       0       0       0       0       0       0       0
Total ram usage:       23 bytes
 Hardware stack levels used:    1
 Hardware stack levels required when called:   10
 This function calls:
		_ETH_ComputeChecksum
 This function is called by:
		_ICMP_EchoReply
		_IPV4_Send
		_TCP_Snd
		_UDP_Send
 This function uses a non-reentrant model


 *************** function _ETH_ComputeChecksum *****************
 Defined at:
		line 710 in file "../../TCPIP Library/ethernet_drivers/j60_driver.c"
 Parameters:    Size  Location     Type
  len             2   22[COMRAM] unsigned int 
  seed            2   24[COMRAM] unsigned int 
 Auto vars:     Size  Location     Type
  cksm            4   30[COMRAM] unsigned long 
  v               2   34[COMRAM] unsigned int 
 Return value:  Size  Location     Type
                  2   22[COMRAM] unsigned int 
 Registers used:
		wreg, status,2, status,0, cstack
 Tracked objects:
		On entry : 
		On exit  : 
		Unchanged: 
 Data sizes:     COMRAM   BANK0   BANK1   BANK2   BANK3   BANK4   BANK5   BANK6   BANK7   BANK8   BANK9  BANK10  BANK11  BANK12  BANK13  BANK14  BANK15
      Params:         4       0       0       0       0       0       0       0       0       0       0       0       0       0       0       0       0
      Locals:         6       0       0       0       0       0       0       0       0       0       0       0       0       0       0       0       0
      Temps:          4       0       0       0       0       0       0       0       0       0       0       0       0       0       0       0       0
      Totals:        14       0       0       0       0       0       0       0       0       0       0       0       0       0       0       0       0
Total ram usage:       14 bytes
 Hardware stack levels used:    1
 Hardware stack levels required when called:    9
 This function calls:
		_ETH_EdataRead
 This function is called by:
		_ETH_TxComputeChecksum
		_ETH_RxComputeChecksum
 This function uses a non-reentrant model


 *************** function _ETH_Send *****************
 Defined at:
		line 567 in file "../../TCPIP Library/ethernet_drivers/j60_driver.c"
 Parameters:    Size  Location     Type
		None
 Auto vars:     Size  Location     Type
  packetEnd       2   22[COMRAM] unsigned int 
 Return value:  Size  Location     Type
                  1    wreg      enum E6944
 Registers used:
		wreg, status,2, status,0
 Tracked objects:
		On entry : 
		On exit  : 
		Unchanged: 
 Data sizes:     COMRAM   BANK0   BANK1   BANK2   BANK3   BANK4   BANK5   BANK6   BANK7   BANK8   BANK9  BANK10  BANK11  BANK12  BANK13  BANK14  BANK15
      Params:         0       0       0       0       0       0       0       0       0       0       0       0       0       0       0       0       0
      Locals:         2       0       0       0       0       0       0       0       0       0       0       0       0       0       0       0       0
      Temps:          0       0       0       0       0       0       0       0       0       0       0       0       0       0       0       0       0
      Totals:         2       0       0       0       0       0       0       0       0       0       0       0       0       0       0       0       0
Total ram usage:        2 bytes
 Hardware stack levels used:    1
 Hardware stack levels required when called:    8
 This function calls:
		Nothing
 This function is called by:
		_ARPV4_Packet
		_ARPV4_Request
		_IPV4_Send
 This function uses a non-reentrant model


 *************** function _ETH_Insert *****************
 Defined at:
		line 596 in file "../../TCPIP Library/ethernet_drivers/j60_driver.c"
 Parameters:    Size  Location     Type
  data            1    wreg     PTR unsigned char 
		 -> UDP_Send@cksm(2), UDP_Send@udpLength(2), TCP_Snd@cksm(2), IPV4_Send@cksm(2), 
		 -> IPV4_Send@totalLength(2), ICMP_EchoReply@cksm(2), 
  len             2   22[COMRAM] unsigned int 
  offset          2   24[COMRAM] unsigned int 
 Auto vars:     Size  Location     Type
  data            1   28[COMRAM] PTR unsigned char 
		 -> UDP_Send@cksm(2), UDP_Send@udpLength(2), TCP_Snd@cksm(2), IPV4_Send@cksm(2), 
		 -> IPV4_Send@totalLength(2), ICMP_EchoReply@cksm(2), 
  current_tx_p    2   26[COMRAM] unsigned int 
 Return value:  Size  Location     Type
		None               void
 Registers used:
		wreg, fsr2l, fsr2h, status,2, status,0, cstack
 Tracked objects:
		On entry : 
		On exit  : 
		Unchanged: 
 Data sizes:     COMRAM   BANK0   BANK1   BANK2   BANK3   BANK4   BANK5   BANK6   BANK7   BANK8   BANK9  BANK10  BANK11  BANK12  BANK13  BANK14  BANK15
      Params:         4       0       0       0       0       0       0       0       0       0       0       0       0       0       0       0       0
      Locals:         3       0       0       0       0       0       0       0       0       0       0       0       0       0       0       0       0
      Temps:          0       0       0       0       0       0       0       0       0       0       0       0       0       0       0       0       0
      Totals:         7       0       0       0       0       0       0       0       0       0       0       0       0       0       0       0       0
Total ram usage:        7 bytes
 Hardware stack levels used:    1
 Hardware stack levels required when called:    9
 This function calls:
		_ETH_EdataWrite
 This function is called by:
		_ICMP_EchoReply
		_IPV4_Send
		_TCP_Snd
		_UDP_Send
 This function uses a non-reentrant model


 *************** function _ETH_EdataWrite *****************
 Defined at:
		line 82 in file "../../TCPIP Library/ethernet_drivers/j60_driver.c"
 Parameters:    Size  Location     Type
  d               1    wreg     unsigned char 
 Auto vars:     Size  Location     Type
  d               1    0[COMRAM] unsigned char 
 Return value:  Size  Location     Type
		None               void
 Registers used:
		wreg
 Tracked objects:
		On entry : 
		On exit  : 
		Unchanged: 
 Data sizes:     COMRAM   BANK0   BANK1   BANK2   BANK3   BANK4   BANK5   BANK6   BANK7   BANK8   BANK9  BANK10  BANK11  BANK12  BANK13  BANK14  BANK15
      Params:         0       0       0       0       0       0       0       0       0       0       0       0       0       0       0       0       0
      Locals:         0       0       0       0       0       0       0       0       0       0       0       0       0       0       0       0       0
      Temps:          0       0       0       0       0       0       0       0       0       0       0       0       0       0       0       0       0
      Totals:         0       0       0       0       0       0       0       0       0       0       0       0       0       0       0       0       0
Total ram usage:        0 bytes
 Hardware stack levels used:    1
 Hardware stack levels required when called:    8
 This function calls:
		Nothing
 This function is called by:
		_ETH_Write8
		_ETH_Write16
		_ETH_Write32
		_ETH_WriteBlock
		_ETH_WriteStart
		_ETH_Insert
 This function uses a non-reentrant model


 *************** function _ETH_ReadBlock *****************
 Defined at:
		line 445 in file "../../TCPIP Library/ethernet_drivers/j60_driver.c"
 Parameters:    Size  Location     Type
  buffer          2   22[COMRAM] PTR void 
		 -> ?_sprintf(2), ?_printf(2), main@str(32), STR_8(13), 
		 -> STR_7(17), DEMO_TCP_Client@txdataPort60(80), DEMO_TCP_Client@strTmp(17), DEMO_TCP_Client@rxdataPort60(50), 
		 -> udpHeader(8), tcpHeader(20), Network_Read@debug_str(80), Network_Read@header(14), 
		 -> ipv4Header(20), ICMP_Receive@icmpHdr(8), DHCP_Handler@ethPktMAC(6), ARPV4_Packet@header(28), 
		 -> STR_1(15), NULL(0), 
  length          2   24[COMRAM] unsigned int 
 Auto vars:     Size  Location     Type
  p               2   29[COMRAM] PTR unsigned char 
		 -> ?_sprintf(2), ?_printf(2), main@str(32), STR_8(13), 
		 -> STR_7(17), DEMO_TCP_Client@txdataPort60(80), DEMO_TCP_Client@strTmp(17), DEMO_TCP_Client@rxdataPort60(50), 
		 -> udpHeader(8), tcpHeader(20), Network_Read@debug_str(80), Network_Read@header(14), 
		 -> ipv4Header(20), ICMP_Receive@icmpHdr(8), DHCP_Handler@ethPktMAC(6), ARPV4_Packet@header(28), 
		 -> STR_1(15), NULL(0), 
  len             2   27[COMRAM] unsigned int 
 Return value:  Size  Location     Type
                  2   22[COMRAM] unsigned int 
 Registers used:
		wreg, fsr0l, fsr0h, status,2, status,0, tblptrl, tblptrh, tblptru, cstack
 Tracked objects:
		On entry : 
		On exit  : 
		Unchanged: 
 Data sizes:     COMRAM   BANK0   BANK1   BANK2   BANK3   BANK4   BANK5   BANK6   BANK7   BANK8   BANK9  BANK10  BANK11  BANK12  BANK13  BANK14  BANK15
      Params:         4       0       0       0       0       0       0       0       0       0       0       0       0       0       0       0       0
      Locals:         4       0       0       0       0       0       0       0       0       0       0       0       0       0       0       0       0
      Temps:          1       0       0       0       0       0       0       0       0       0       0       0       0       0       0       0       0
      Totals:         9       0       0       0       0       0       0       0       0       0       0       0       0       0       0       0       0
Total ram usage:        9 bytes
 Hardware stack levels used:    1
 Hardware stack levels required when called:    9
 This function calls:
		_ETH_EdataRead
 This function is called by:
		_ARPV4_Packet
		_DHCP_Handler
		_ICMP_Receive
		_IPV4_Packet
		_Network_Read
		_TCP_PayloadSave
		_TCP_Recv
		_UDP_Receive
 This function uses a non-reentrant model


 *************** function _ETH_EdataRead *****************
 Defined at:
		line 76 in file "../../TCPIP Library/ethernet_drivers/j60_driver.c"
 Parameters:    Size  Location     Type
		None
 Auto vars:     Size  Location     Type
		None
 Return value:  Size  Location     Type
                  1    wreg      unsigned char 
 Registers used:
		wreg, status,2
 Tracked objects:
		On entry : 
		On exit  : 
		Unchanged: 
 Data sizes:     COMRAM   BANK0   BANK1   BANK2   BANK3   BANK4   BANK5   BANK6   BANK7   BANK8   BANK9  BANK10  BANK11  BANK12  BANK13  BANK14  BANK15
      Params:         0       0       0       0       0       0       0       0       0       0       0       0       0       0       0       0       0
      Locals:         0       0       0       0       0       0       0       0       0       0       0       0       0       0       0       0       0
      Temps:          0       0       0       0       0       0       0       0       0       0       0       0       0       0       0       0       0
      Totals:         0       0       0       0       0       0       0       0       0       0       0       0       0       0       0       0       0
Total ram usage:        0 bytes
 Hardware stack levels used:    1
 Hardware stack levels required when called:    8
 This function calls:
		Nothing
 This function is called by:
		_ETH_NextPacketUpdate
		_ETH_Read8
		_ETH_Read16
		_ETH_Read32
		_ETH_ReadBlock
		_ETH_ComputeChecksum
 This function uses a non-reentrant model


 *************** function _TCB_Reset *****************
 Defined at:
		line 134 in file "../../TCPIP Library/source/tcpv4.c"
 Parameters:    Size  Location     Type
  tcbPtr          2   22[COMRAM] PTR struct .
		 -> ?_sprintf(2), ?_printf(2), main@str(32), STR_8(13), 
		 -> STR_7(17), DEMO_TCP_Client@txdataPort60(80), DEMO_TCP_Client@strTmp(17), DEMO_TCP_Client@rxdataPort60(50), 
		 -> DEMO_TCP_Client@port60TCB(55), Network_Read@debug_str(80), STR_1(15), NULL(0), 
 Auto vars:     Size  Location     Type
		None
 Return value:  Size  Location     Type
		None               void
 Registers used:
		wreg, fsr0l, fsr0h, status,2, status,0, tblptrl, tblptrh, tblptru
 Tracked objects:
		On entry : 
		On exit  : 
		Unchanged: 
 Data sizes:     COMRAM   BANK0   BANK1   BANK2   BANK3   BANK4   BANK5   BANK6   BANK7   BANK8   BANK9  BANK10  BANK11  BANK12  BANK13  BANK14  BANK15
      Params:         2       0       0       0       0       0       0       0       0       0       0       0       0       0       0       0       0
      Locals:         0       0       0       0       0       0       0       0       0       0       0       0       0       0       0       0       0
      Temps:          2       0       0       0       0       0       0       0       0       0       0       0       0       0       0       0       0
      Totals:         4       0       0       0       0       0       0       0       0       0       0       0       0       0       0       0       0
Total ram usage:        4 bytes
 Hardware stack levels used:    1
 Hardware stack levels required when called:    8
 This function calls:
		Nothing
 This function is called by:
		_TCP_FiniteStateMachine
		_TCP_SocketInit
 This function uses a non-reentrant model


 *************** function _ADC_GetConversion *****************
 Defined at:
		line 106 in file "../board_support_package/picdem2_net/adc.c"
 Parameters:    Size  Location     Type
  channel         1    wreg     enum E6609
 Auto vars:     Size  Location     Type
  channel         1   25[COMRAM] enum E6609
 Return value:  Size  Location     Type
                  2   22[COMRAM] unsigned int 
 Registers used:
		wreg, status,2, status,0
 Tracked objects:
		On entry : 
		On exit  : 
		Unchanged: 
 Data sizes:     COMRAM   BANK0   BANK1   BANK2   BANK3   BANK4   BANK5   BANK6   BANK7   BANK8   BANK9  BANK10  BANK11  BANK12  BANK13  BANK14  BANK15
      Params:         2       0       0       0       0       0       0       0       0       0       0       0       0       0       0       0       0
      Locals:         1       0       0       0       0       0       0       0       0       0       0       0       0       0       0       0       0
      Temps:          1       0       0       0       0       0       0       0       0       0       0       0       0       0       0       0       0
      Totals:         4       0       0       0       0       0       0       0       0       0       0       0       0       0       0       0       0
Total ram usage:        4 bytes
 Hardware stack levels used:    1
 Hardware stack levels required when called:    8
 This function calls:
		Nothing
 This function is called by:
		_DEMO_TCP_Client
 This function uses a non-reentrant model


 *************** function _low_isr *****************
 Defined at:
		line 64 in file "main.c"
 Parameters:    Size  Location     Type
		None
 Auto vars:     Size  Location     Type
		None
 Return value:  Size  Location     Type
		None               void
 Registers used:
		wreg, status,2, status,0, cstack
 Tracked objects:
		On entry : 
		On exit  : 
		Unchanged: 
 Data sizes:     COMRAM   BANK0   BANK1   BANK2   BANK3   BANK4   BANK5   BANK6   BANK7   BANK8   BANK9  BANK10  BANK11  BANK12  BANK13  BANK14  BANK15
      Params:         0       0       0       0       0       0       0       0       0       0       0       0       0       0       0       0       0
      Locals:         0       0       0       0       0       0       0       0       0       0       0       0       0       0       0       0       0
      Temps:          3       0       0       0       0       0       0       0       0       0       0       0       0       0       0       0       0
      Totals:         3       0       0       0       0       0       0       0       0       0       0       0       0       0       0       0       0
Total ram usage:        3 bytes
 Hardware stack levels used:    1
 Hardware stack levels required when called:    7
 This function calls:
		i1_ETH_EventHandler
 This function is called by:
		Interrupt level 1
 This function uses a non-reentrant model


 *************** function i1_ETH_EventHandler *****************
 Defined at:
		line 215 in file "../../TCPIP Library/ethernet_drivers/j60_driver.c"
 Parameters:    Size  Location     Type
		None
 Auto vars:     Size  Location     Type
		None
 Return value:  Size  Location     Type
		None               void
 Registers used:
		wreg, status,2, status,0, cstack
 Tracked objects:
		On entry : 
		On exit  : 
		Unchanged: 
 Data sizes:     COMRAM   BANK0   BANK1   BANK2   BANK3   BANK4   BANK5   BANK6   BANK7   BANK8   BANK9  BANK10  BANK11  BANK12  BANK13  BANK14  BANK15
      Params:         0       0       0       0       0       0       0       0       0       0       0       0       0       0       0       0       0
      Locals:         0       0       0       0       0       0       0       0       0       0       0       0       0       0       0       0       0
      Temps:          0       0       0       0       0       0       0       0       0       0       0       0       0       0       0       0       0
      Totals:         0       0       0       0       0       0       0       0       0       0       0       0       0       0       0       0       0
Total ram usage:        0 bytes
 Hardware stack levels used:    1
 Hardware stack levels required when called:    6
 This function calls:
		i1_ETH_CheckLinkUp
		i1_PHY_Read
 This function is called by:
		_low_isr
 This function uses a non-reentrant model


 *************** function i1_ETH_CheckLinkUp *****************
 Defined at:
		line 198 in file "../../TCPIP Library/ethernet_drivers/j60_driver.c"
 Parameters:    Size  Location     Type
		None
 Auto vars:     Size  Location     Type
  ETH_CheckLin    4   15[COMRAM] unsigned long 
 Return value:  Size  Location     Type
                  1    wreg      unsigned char 
 Registers used:
		wreg, status,2, status,0, cstack
 Tracked objects:
		On entry : 
		On exit  : 
		Unchanged: 
 Data sizes:     COMRAM   BANK0   BANK1   BANK2   BANK3   BANK4   BANK5   BANK6   BANK7   BANK8   BANK9  BANK10  BANK11  BANK12  BANK13  BANK14  BANK15
      Params:         0       0       0       0       0       0       0       0       0       0       0       0       0       0       0       0       0
      Locals:         4       0       0       0       0       0       0       0       0       0       0       0       0       0       0       0       0
      Temps:          0       0       0       0       0       0       0       0       0       0       0       0       0       0       0       0       0
      Totals:         4       0       0       0       0       0       0       0       0       0       0       0       0       0       0       0       0
Total ram usage:        4 bytes
 Hardware stack levels used:    1
 Hardware stack levels required when called:    5
 This function calls:
		i1_ETH_readLinkStatus
 This function is called by:
		i1_ETH_EventHandler
 This function uses a non-reentrant model


 *************** function i1_ETH_readLinkStatus *****************
 Defined at:
		line 193 in file "../../TCPIP Library/ethernet_drivers/j60_driver.c"
 Parameters:    Size  Location     Type
		None
 Auto vars:     Size  Location     Type
		None
 Return value:  Size  Location     Type
                  4   11[COMRAM] unsigned long 
 Registers used:
		wreg, status,2, status,0, cstack
 Tracked objects:
		On entry : 
		On exit  : 
		Unchanged: 
 Data sizes:     COMRAM   BANK0   BANK1   BANK2   BANK3   BANK4   BANK5   BANK6   BANK7   BANK8   BANK9  BANK10  BANK11  BANK12  BANK13  BANK14  BANK15
      Params:         4       0       0       0       0       0       0       0       0       0       0       0       0       0       0       0       0
      Locals:         0       0       0       0       0       0       0       0       0       0       0       0       0       0       0       0       0
      Temps:          0       0       0       0       0       0       0       0       0       0       0       0       0       0       0       0       0
      Totals:         4       0       0       0       0       0       0       0       0       0       0       0       0       0       0       0       0
Total ram usage:        4 bytes
 Hardware stack levels used:    1
 Hardware stack levels required when called:    4
 This function calls:
		i1_PHY_Read
 This function is called by:
		i1_ETH_CheckLinkUp
 This function uses a non-reentrant model


 *************** function i1_PHY_Read *****************
 Defined at:
		line 350 in file "../../TCPIP Library/ethernet_drivers/j60_driver.c"
 Parameters:    Size  Location     Type
  reg             1    wreg     enum E7098
 Auto vars:     Size  Location     Type
  reg             1    6[COMRAM] enum E7098
  PHY_Read        4    7[COMRAM] long 
 Return value:  Size  Location     Type
                  4    2[COMRAM] long 
 Registers used:
		wreg, status,2, status,0, cstack
 Tracked objects:
		On entry : 
		On exit  : 
		Unchanged: 
 Data sizes:     COMRAM   BANK0   BANK1   BANK2   BANK3   BANK4   BANK5   BANK6   BANK7   BANK8   BANK9  BANK10  BANK11  BANK12  BANK13  BANK14  BANK15
      Params:         4       0       0       0       0       0       0       0       0       0       0       0       0       0       0       0       0
      Locals:         5       0       0       0       0       0       0       0       0       0       0       0       0       0       0       0       0
      Temps:          0       0       0       0       0       0       0       0       0       0       0       0       0       0       0       0       0
      Totals:         9       0       0       0       0       0       0       0       0       0       0       0       0       0       0       0       0
Total ram usage:        9 bytes
 Hardware stack levels used:    1
 Hardware stack levels required when called:    3
 This function calls:
		i1_PHY_WaitForBusy
 This function is called by:
		i1_ETH_readLinkStatus
		i1_ETH_EventHandler
 This function uses a non-reentrant model


 *************** function i1_PHY_WaitForBusy *****************
 Defined at:
		line 298 in file "../../TCPIP Library/ethernet_drivers/j60_driver.c"
 Parameters:    Size  Location     Type
		None
 Auto vars:     Size  Location     Type
  PHY_WaitForB    1    1[COMRAM] unsigned char 
  PHY_WaitForB    1    0[COMRAM] enum E7107
 Return value:  Size  Location     Type
                  1    wreg      enum E7107
 Registers used:
		wreg, status,2, status,0
 Tracked objects:
		On entry : 
		On exit  : 
		Unchanged: 
 Data sizes:     COMRAM   BANK0   BANK1   BANK2   BANK3   BANK4   BANK5   BANK6   BANK7   BANK8   BANK9  BANK10  BANK11  BANK12  BANK13  BANK14  BANK15
      Params:         0       0       0       0       0       0       0       0       0       0       0       0       0       0       0       0       0
      Locals:         2       0       0       0       0       0       0       0       0       0       0       0       0       0       0       0       0
      Temps:          0       0       0       0       0       0       0       0       0       0       0       0       0       0       0       0       0
      Totals:         2       0       0       0       0       0       0       0       0       0       0       0       0       0       0       0       0
Total ram usage:        2 bytes
 Hardware stack levels used:    1
 Hardware stack levels required when called:    2
 This function calls:
		Nothing
 This function is called by:
		i1_PHY_Read
 This function uses a non-reentrant model


 *************** function _high_isr *****************
 Defined at:
		line 59 in file "main.c"
 Parameters:    Size  Location     Type
		None
 Auto vars:     Size  Location     Type
		None
 Return value:  Size  Location     Type
		None               void
 Registers used:
		wreg, status,2, status,0, cstack
 Tracked objects:
		On entry : 
		On exit  : 
		Unchanged: 
 Data sizes:     COMRAM   BANK0   BANK1   BANK2   BANK3   BANK4   BANK5   BANK6   BANK7   BANK8   BANK9  BANK10  BANK11  BANK12  BANK13  BANK14  BANK15
      Params:         0       0       0       0       0       0       0       0       0       0       0       0       0       0       0       0       0
      Locals:         0       0       0       0       0       0       0       0       0       0       0       0       0       0       0       0       0
      Temps:          0       0       0       0       0       0       0       0       0       0       0       0       0       0       0       0       0
      Totals:         0       0       0       0       0       0       0       0       0       0       0       0       0       0       0       0       0
Total ram usage:        0 bytes
 Hardware stack levels used:    1
 Hardware stack levels required when called:    1
 This function calls:
		_rtcc_handler
 This function is called by:
		Interrupt level 2
 This function uses a non-reentrant model


 *************** function _rtcc_handler *****************
 Defined at:
		line 122 in file "../board_support_package/picdem2_net/rtcc.c"
 Parameters:    Size  Location     Type
		None
 Auto vars:     Size  Location     Type
		None
 Return value:  Size  Location     Type
		None               void
 Registers used:
		wreg, status,2, status,0
 Tracked objects:
		On entry : 
		On exit  : 
		Unchanged: 
 Data sizes:     COMRAM   BANK0   BANK1   BANK2   BANK3   BANK4   BANK5   BANK6   BANK7   BANK8   BANK9  BANK10  BANK11  BANK12  BANK13  BANK14  BANK15
      Params:         0       0       0       0       0       0       0       0       0       0       0       0       0       0       0       0       0
      Locals:         0       0       0       0       0       0       0       0       0       0       0       0       0       0       0       0       0
      Temps:          0       0       0       0       0       0       0       0       0       0       0       0       0       0       0       0       0
      Totals:         0       0       0       0       0       0       0       0       0       0       0       0       0       0       0       0       0
Total ram usage:        0 bytes
 Hardware stack levels used:    1
 This function calls:
		Nothing
 This function is called by:
		_high_isr
 This function uses a non-reentrant model



MODULE INFORMATION

Module		Function		Class		Link	Load	Size
C:\Program Files (x86)\Microchip\xc8\v1.35\sources\common\printf.c
		_printf        		CODE           	6502	0000	37

C:\Program Files (x86)\Microchip\xc8\v1.35\sources\common\printf.c estimated size: 37

../board_support_package/picdem2_net/rtcc.c
		_rtcc_handler  		CODE           	6442	0000	41
		_rtcc_init     		CODE           	614A	0000	57
		_time          		CODE           	5CA4	0000	85

../board_support_package/picdem2_net/rtcc.c estimated size: 183

../board_support_package/picdem2_net/uart.c
		_putch         		CODE           	6630	0000	27
		_uart_init     		CODE           	667C	0000	23

../board_support_package/picdem2_net/uart.c estimated size: 50

C:\Program Files (x86)\Microchip\xc8\v1.35\sources\common\isdigit.c
		_isdigit       		CODE           	65DE	0000	29

C:\Program Files (x86)\Microchip\xc8\v1.35\sources\common\isdigit.c estimated size: 29

../board_support_package/picdem2_net/hardware.c
		_initHW        		CODE           	6182	0000	55

../board_support_package/picdem2_net/hardware.c estimated size: 55

../../TCPIP Library/source/icmp.c
		_ICMP_Receive  		CODE           	5ECC	0000	69
		_ICMP_EchoReply		CODE           	4A94	0000	265

../../TCPIP Library/source/icmp.c estimated size: 334

C:\Program Files (x86)\Microchip\xc8\v1.35\sources\common\strlen.c
		_strlen        		CODE           	641A	0000	41

C:\Program Files (x86)\Microchip\xc8\v1.35\sources\common\strlen.c estimated size: 41

../board_support_package/picdem2_net/led_driver.c
		_LED_Init      		CODE           	6526	0000	33

../board_support_package/picdem2_net/led_driver.c estimated size: 33

../../TCPIP Library/source/syslog.c
		_SYSLOG_Init   		CODE           	628C	0000	47
		_SYSLOG_Write  		CODE           	646A	0000	39

../../TCPIP Library/source/syslog.c estimated size: 86

C:\Program Files (x86)\Microchip\xc8\v1.35\sources\common\sprintf.c
		_sprintf       		CODE           	62E8	0000	47

C:\Program Files (x86)\Microchip\xc8\v1.35\sources\common\sprintf.c estimated size: 47

C:\Program Files (x86)\Microchip\xc8\v1.35\sources\common\memset.c
		_memset        		CODE           	63C6	0000	43

C:\Program Files (x86)\Microchip\xc8\v1.35\sources\common\memset.c estimated size: 43

../../TCPIP Library/source/mac_address.c
		_MAC_getAddress		CODE           	6742	0000	5

../../TCPIP Library/source/mac_address.c estimated size: 5

C:\Program Files (x86)\Microchip\xc8\v1.35\sources\common\lwmod.c
		___lwmod       		CODE           	610C	0000	63

C:\Program Files (x86)\Microchip\xc8\v1.35\sources\common\lwmod.c estimated size: 63

../../TCPIP Library/source/ipv4.c
		_IPV4_GetMyIP  		CODE           	66A8	0000	19
		_IPV4_Send     		CODE           	5B22	0000	103
		_IPV4_Packet   		CODE           	3858	0000	467
		_IPV4_PseudoHeaderChecksum		CODE           	55CE	0000	153
		_IPv4_Start    		CODE           	4644	0000	377
		_IPV4_Init     		CODE           	6712	0000	11

../../TCPIP Library/source/ipv4.c estimated size: 1130

C:\Program Files (x86)\Microchip\xc8\v1.35\sources\common\doprnt.c
		__doprnt       		CODE           	2CC2	0000	973

C:\Program Files (x86)\Microchip\xc8\v1.35\sources\common\doprnt.c estimated size: 973

../../TCPIP Library/source/udpv4.c
		_UDP_Receive   		CODE           	504E	0000	197
		_UDP_Send      		CODE           	581E	0000	113
		_UDP_Start     		CODE           	5D98	0000	79

../../TCPIP Library/source/udpv4.c estimated size: 389

../../TCPIP Library/source/dhcp_client.c
		_DHCP_Handler  		CODE           	3DBE	0000	589
		_DHCP_Request  		CODE           	4492	0000	393
		_DHCP_WriteZeros		CODE           	6664	0000	25
		_DHCP_Manage   		CODE           	58AA	0000	129

../../TCPIP Library/source/dhcp_client.c estimated size: 1136

shared
		PL439          		CODE           	2A5A	0000	85
		PL629          		CODE           	5520	0000	17
		PL477          		CODE           	24D6	0000	9
		PL667          		CODE           	592A	0000	11
		PL539          		CODE           	2B0A	0000	29
		PL387          		CODE           	22F4	0000	25
		PL729          		CODE           	4BDE	0000	11
		PL577          		CODE           	30F0	0000	9
		_dhcpName      		SMALLCONST     	1013	0000	22
		PL449          		CODE           	2470	0000	9
		PL639          		CODE           	2576	0000	11
		PL487          		CODE           	30D0	0000	15
		PL677          		CODE           	65B6	0000	13
		i1_ETH_EventHandler		CODE           	6224	0000	55
		PL549          		CODE           	4456	0000	27
		PL397          		CODE           	2338	0000	13
		PL739          		CODE           	3B3C	0000	11
		PL587          		CODE           	5B88	0000	11
		PL459          		CODE           	249C	0000	27
		PL649          		CODE           	447A	0000	15
		PL497          		CODE           	37D2	0000	41
		PL687          		CODE           	311C	0000	11
		PL559          		CODE           	2B8E	0000	27
		PL749          		CODE           	53DE	0000	9
		PL597          		CODE           	4264	0000	15
		PL469          		CODE           	30C8	0000	9
		PL659          		CODE           	310E	0000	15
		PL697          		CODE           	4F38	0000	11
		PL569          		CODE           	3ADE	0000	27
		PL759          		CODE           	5488	0000	9
		PL479          		CODE           	24DE	0000	9
		PL669          		CODE           	4A72	0000	13
		PL401          		CODE           	2344	0000	29
		PL389          		CODE           	230C	0000	11
		PL579          		CODE           	4BBC	0000	25
		_macAddress    		SMALLCONST     	102E	0000	7
		PL501          		CODE           	3A8A	0000	41
		PL489          		CODE           	4D0C	0000	9
		PL679          		CODE           	60C0	0000	13
		PL411          		CODE           	424A	0000	27
		PL601          		CODE           	5112	0000	21
		PL399          		CODE           	4916	0000	27
		PL589          		CODE           	4A5C	0000	23
		_dpowers       		SMALLCONST     	1001	0000	11
		i1_ETH_CheckLinkUp		CODE           	6344	0000	47
		PL511          		CODE           	4B9C	0000	33
		PL701          		CODE           	2C94	0000	11
		PL499          		CODE           	251C	0000	19
		PL689          		CODE           	3126	0000	11
		PL421          		CODE           	3760	0000	115
		PL611          		CODE           	2C02	0000	19
		PL599          		CODE           	34E0	0000	21
		PL521          		CODE           	30DE	0000	19
		PL711          		CODE           	384E	0000	11
		PL699          		CODE           	3B28	0000	11
		PL431          		CODE           	241A	0000	9
		PL621          		CODE           	5042	0000	13
		PL531          		CODE           	2AEE	0000	29
		PL721          		CODE           	6080	0000	11
		PL403          		CODE           	2360	0000	19
		PL441          		CODE           	2422	0000	27
		PL631          		CODE           	2C48	0000	11
		PL503          		CODE           	2AD6	0000	11
		PL541          		CODE           	3AC4	0000	27
		PL731          		CODE           	4A8A	0000	11
		PL413          		CODE           	442C	0000	29
		PL603          		CODE           	61E4	0000	11
		PL451          		CODE           	2478	0000	9
		PL641          		CODE           	2580	0000	15
		_UDP_CallBackTable		SMALLCONST     	1034	0000	6
		PL513          		CODE           	2538	0000	9
		PL703          		CODE           	3502	0000	11
		PL551          		CODE           	3D68	0000	27
		PL741          		CODE           	3B46	0000	11
		PL423          		CODE           	23E4	0000	11
		PL613          		CODE           	2C14	0000	19
		PL461          		CODE           	30A6	0000	13
		PL651          		CODE           	2C70	0000	15
		PL523          		CODE           	3AB2	0000	19
		PL713          		CODE           	5F46	0000	9
		PL561          		CODE           	2BA8	0000	27
		PL751          		CODE           	6286	0000	7
		__initialization		CODE           	5E34	0000	67
		PL433          		CODE           	3A2A	0000	97
		PL623          		CODE           	2566	0000	17
		PL471          		CODE           	24C2	0000	11
		PL661          		CODE           	4272	0000	11
		PL533          		CODE           	588E	0000	29
		PL723          		CODE           	2CA8	0000	9
		PL571          		CODE           	3AF8	0000	17
		PL761          		CODE           	2CBA	0000	9
		PL405          		CODE           	2372	0000	65
		PL443          		CODE           	243C	0000	27
		PL633          		CODE           	2C52	0000	17
		PL481          		CODE           	24E6	0000	19
		PL671          		CODE           	2C88	0000	13
		PL505          		CODE           	5786	0000	11
		PL543          		CODE           	4448	0000	15
		PL391          		CODE           	2A40	0000	27
		PL733          		CODE           	3130	0000	11
		PL581          		CODE           	2BDC	0000	25
		PL415          		CODE           	23CC	0000	9
		PL605          		CODE           	5B0E	0000	11
		PL453          		CODE           	4E12	0000	25
		PL643          		CODE           	51D0	0000	15
		PL491          		CODE           	250A	0000	19
		PL681          		CODE           	6390	0000	13
		PL515          		CODE           	2540	0000	9
		PL705          		CODE           	350C	0000	11
		PL553          		CODE           	2B40	0000	27
		PL743          		CODE           	401C	0000	9
		PL591          		CODE           	3844	0000	11
		i1_PHY_WaitForBusy		CODE           	0000	0000	1
		PL425          		CODE           	23EE	0000	29
		PL615          		CODE           	2C26	0000	19
		PL463          		CODE           	30B2	0000	11
		PL653          		CODE           	4636	0000	15
		PL691          		CODE           	4488	0000	11
		PL525          		CODE           	461A	0000	19
		PL715          		CODE           	5286	0000	11
		PL563          		CODE           	2BC2	0000	27
		PL753          		CODE           	5F56	0000	9
		_hexpowers     		SMALLCONST     	100B	0000	9
		PL435          		CODE           	3440	0000	95
		PL625          		CODE           	2C38	0000	17
		PL473          		CODE           	24CC	0000	11
		PL663          		CODE           	527C	0000	11
		PL535          		CODE           	34C6	0000	27
		PL725          		CODE           	55C2	0000	7
		PL573          		CODE           	3D9C	0000	25
		PL407          		CODE           	23B2	0000	27
		PL445          		CODE           	2456	0000	27
		PL635          		CODE           	462C	0000	11
		PL483          		CODE           	24F8	0000	19
		PL673          		CODE           	6218	0000	13
		_broadcastMAC  		SMALLCONST     	1028	0000	7
		PL507          		CODE           	252E	0000	11
		PL545          		CODE           	2550	0000	15
		PL393          		CODE           	2316	0000	9
		PL735          		CODE           	313A	0000	11
		PL583          		CODE           	30F8	0000	9
		i1_PHY_Read    		CODE           	53E6	0000	163
		PL417          		CODE           	23D4	0000	9
		PL607          		CODE           	5A96	0000	11
		PL455          		CODE           	2480	0000	15
		PL645          		CODE           	5274	0000	9
		PL493          		CODE           	3D40	0000	41
		PL683          		CODE           	4A7E	0000	13
		PL517          		CODE           	380E	0000	29
		PL707          		CODE           	2C9E	0000	11
		PL555          		CODE           	2B5A	0000	27
		PL745          		CODE           	5F4E	0000	9
		PL593          		CODE           	3B08	0000	23
		PL427          		CODE           	240A	0000	9
		PL617          		CODE           	255E	0000	9
		PL465          		CODE           	30BC	0000	13
		PL655          		CODE           	3100	0000	15
		PL693          		CODE           	258E	0000	11
		PL527          		CODE           	2AE0	0000	15
		PL717          		CODE           	4E2A	0000	11
		PL565          		CODE           	4A2A	0000	27
		PL755          		CODE           	5F5E	0000	7
		PL437          		CODE           	308E	0000	25
		PL627          		CODE           	4BD4	0000	11
		PL475          		CODE           	49F4	0000	55
		PL665          		CODE           	2C7E	0000	11
		PL537          		CODE           	56F4	0000	11
		PL727          		CODE           	2CB0	0000	11
		PL575          		CODE           	4A44	0000	25
		PL409          		CODE           	3426	0000	27
		PL447          		CODE           	2AAE	0000	15
		PL637          		CODE           	4470	0000	11
		PL485          		CODE           	2ABC	0000	27
		PL675          		CODE           	59AC	0000	13
		PL509          		CODE           	37FA	0000	21
		PL547          		CODE           	2B26	0000	27
		PL395          		CODE           	231E	0000	27
		PL737          		CODE           	3DB4	0000	11
		PL585          		CODE           	5D32	0000	23
		PL419          		CODE           	23DC	0000	9
		PL609          		CODE           	400A	0000	19
		PL457          		CODE           	248E	0000	15
		PL647          		CODE           	2C62	0000	15
		PL495          		CODE           	349E	0000	41
		PL685          		CODE           	3B1E	0000	11
		PL519          		CODE           	2548	0000	9
		PL709          		CODE           	3B32	0000	11
		PL557          		CODE           	2B74	0000	27
		PL747          		CODE           	55C8	0000	7
		PL595          		CODE           	2BF4	0000	15
		i1_ETH_readLinkStatus		CODE           	0000	0000	1
		PL429          		CODE           	2412	0000	9
		PL619          		CODE           	5AA0	0000	13
		PL467          		CODE           	24B6	0000	13
		PL657          		CODE           	34F4	0000	15
		PL695          		CODE           	47BC	0000	11
		PL529          		CODE           	382A	0000	27
		PL719          		CODE           	5B18	0000	11
		PL567          		CODE           	3D82	0000	27
		PL757          		CODE           	5F10	0000	9

shared estimated size: 3910

../board_support_package/picdem2_net/adc.c
		_ADC_Initialize		CODE           	6692	0000	23
		_ADC_GetConversion		CODE           	6316	0000	47

../board_support_package/picdem2_net/adc.c estimated size: 70

../../TCPIP Library/source/tcpv4.c
		_TCP_InsertRxBuffer		CODE           	5A36	0000	97
		_TCP_FiniteStateMachine		CODE           	10FA	0000	4603
		_TCB_Check     		CODE           	59B8	0000	127
		_TCP_ParseTCPOptions		CODE           	4E34	0000	261
		_TCB_Reset     		CODE           	47C6	0000	337
		_TCP_GetReceivedData		CODE           	5AAC	0000	99
		_TCP_Connect   		CODE           	51DE	0000	151
		_TCP_Init      		CODE           	65C2	0000	29
		_TCP_Send      		CODE           	5666	0000	143
		_TCP_SendDone  		CODE           	63F0	0000	43
		_TCP_SocketPoll		CODE           	64DC	0000	39
		_TCP_SocketInit		CODE           	56FE	0000	137
		_TCP_Snd       		CODE           	2598	0000	1193
		_TCB_Insert    		CODE           	6042	0000	63
		_TCP_PayloadSave		CODE           	427C	0000	433
		_TCP_Recv      		CODE           	3144	0000	739
		_TCP_Update    		CODE           	4024	0000	551

../../TCPIP Library/source/tcpv4.c estimated size: 9045

C:\Program Files (x86)\Microchip\xc8\v1.35\sources\common\memcmp.c
		_memcmp        		CODE           	5E80	0000	77

C:\Program Files (x86)\Microchip\xc8\v1.35\sources\common\memcmp.c estimated size: 77

C:\Program Files (x86)\Microchip\xc8\v1.35\sources\common\lwdiv.c
		___lwdiv       		CODE           	5FB0	0000	75

C:\Program Files (x86)\Microchip\xc8\v1.35\sources\common\lwdiv.c estimated size: 75

../board_support_package/picdem2_net/lcd_hw.c
		_lcd_write_data		CODE           	6546	0000	33
		_lcd_write_ctrl		CODE           	6566	0000	33
		_lcd_busy      		CODE           	671C	0000	11
		_lcd_init_pins 		CODE           	66FE	0000	11

../board_support_package/picdem2_net/lcd_hw.c estimated size: 88

C:\Program Files (x86)\Microchip\xc8\v1.35\sources\common\Umul16.c
		___wmul        		CODE           	64B6	0000	39

C:\Program Files (x86)\Microchip\xc8\v1.35\sources\common\Umul16.c estimated size: 39

../../TCPIP Library/source/arpv4.c
		_ARPV4_Packet  		CODE           	3516	0000	587
		_ARPV4_Init    		CODE           	6616	0000	27
		_ARPV4_Lookup  		CODE           	5DE6	0000	79
		_ARPV4_Update  		CODE           	639C	0000	43
		_ARPV4_Request 		CODE           	4930	0000	197

../../TCPIP Library/source/arpv4.c estimated size: 933

main.c
		_main          		CODE           	4F42	0000	257
		_DEMO_TCP_Client		CODE           	3B50	0000	497
		_high_isr      		CODE           	0008	0000	15
		_low_isr       		CODE           	0018	0000	35

main.c estimated size: 804

../../TCPIP Library/ethernet_drivers/j60_driver.c
		_ETH_EdataRead 		CODE           	0000	0000	1
		_PHY_Read      		CODE           	533C	0000	163
		_ETH_ComputeChecksum		CODE           	5490	0000	145
		_ETH_EdataWrite		CODE           	0000	0000	1
		_ETH_CheckLinkUp		CODE           	625A	0000	45
		_ETH_Write8    		CODE           	6726	0000	11
		_ETH_Write32   		CODE           	664A	0000	27
		_ETH_Write16   		CODE           	66E4	0000	15
		_ETH_Insert    		CODE           	60CC	0000	65
		_ETH_Read8     		CODE           	6372	0000	31
		_ETH_Read32    		CODE           	5BF6	0000	89
		_ETH_Read16    		CODE           	608A	0000	55
		_ETH_Init      		CODE           	4BE8	0000	293
		_ETH_RxComputeChecksum		CODE           	5FFA	0000	73
		_ETH_NextPacketUpdate		CODE           	5C4E	0000	87
		_ETH_Flush     		CODE           	5CF8	0000	59
		_ETH_WriteBlock		CODE           	5F64	0000	77
		_ETH_Send      		CODE           	61EE	0000	43
		_ETH_WriteStart		CODE           	4D14	0000	255
		_ETH_ReadBlock 		CODE           	5B92	0000	101
		_ETH_Copy      		CODE           	5126	0000	171
		_ETH_GetMAC    		CODE           	61B8	0000	45
		_PHY_WaitForBusy		CODE           	0000	0000	1
		_ETH_ResetByteCount		CODE           	6730	0000	11
		_ETH_SaveRDPT  		CODE           	6708	0000	11
		_ETH_Dump      		CODE           	62BA	0000	47
		_ETH_GetByteCount		CODE           	6586	0000	31
		_ETH_readLinkStatus		CODE           	0000	0000	1
		_ETH_TxComputeChecksum		CODE           	5790	0000	143
		_PHY_Write     		CODE           	5D48	0000	81
		_ETH_EventHandler		CODE           	5F18	0000	47

../../TCPIP Library/ethernet_drivers/j60_driver.c estimated size: 2225

../board_support_package/picdem2_net/lcd.c
		_lcd_puts      		CODE           	65A4	0000	19
		_lcd_putch     		CODE           	65FA	0000	29
		_lcd_goto1     		CODE           	66BA	0000	15
		_lcd_goto2     		CODE           	66D6	0000	15
		_lcd_init      		CODE           	5530	0000	147

../board_support_package/picdem2_net/lcd.c estimated size: 225

../board_support_package/picdem2_net/mssp_spi_master.c
		_spi_init      		CODE           	66F2	0000	13

../board_support_package/picdem2_net/mssp_spi_master.c estimated size: 13

../../TCPIP Library/source/network.c
		_Network_Read  		CODE           	5290	0000	173
		_Network_Init  		CODE           	6490	0000	39
		_Network_WaitForLink		CODE           	66C8	0000	15
		_Network_Manage		CODE           	5934	0000	121

../../TCPIP Library/source/network.c estimated size: 348

